
7_segment_led.elf:     file format elf32-avr

Sections:
Idx Name          Size      VMA       LMA       File off  Algn
  0 .text         0000072e  00000000  00000000  00000054  2**1
                  CONTENTS, ALLOC, LOAD, READONLY, CODE
  1 .debug_aranges 00000020  00000000  00000000  00000782  2**0
                  CONTENTS, READONLY, DEBUGGING
  2 .debug_pubnames 0000001b  00000000  00000000  000007a2  2**0
                  CONTENTS, READONLY, DEBUGGING
  3 .debug_info   00001da6  00000000  00000000  000007bd  2**0
                  CONTENTS, READONLY, DEBUGGING
  4 .debug_abbrev 000000e6  00000000  00000000  00002563  2**0
                  CONTENTS, READONLY, DEBUGGING
  5 .debug_line   000011f3  00000000  00000000  00002649  2**0
                  CONTENTS, READONLY, DEBUGGING
  6 .debug_frame  00000020  00000000  00000000  0000383c  2**2
                  CONTENTS, READONLY, DEBUGGING
  7 .debug_str    000000c8  00000000  00000000  0000385c  2**0
                  CONTENTS, READONLY, DEBUGGING
  8 .debug_loc    000012e0  00000000  00000000  00003924  2**0
                  CONTENTS, READONLY, DEBUGGING
  9 .debug_ranges 00000048  00000000  00000000  00004c04  2**0
                  CONTENTS, READONLY, DEBUGGING
Disassembly of section .text:

00000000 <__vectors>:
   0:	0c 94 2a 00 	jmp	0x54	; 0x54 <__ctors_end>
   4:	0c 94 47 00 	jmp	0x8e	; 0x8e <__bad_interrupt>
   8:	0c 94 47 00 	jmp	0x8e	; 0x8e <__bad_interrupt>
   c:	0c 94 47 00 	jmp	0x8e	; 0x8e <__bad_interrupt>
  10:	0c 94 47 00 	jmp	0x8e	; 0x8e <__bad_interrupt>
  14:	0c 94 47 00 	jmp	0x8e	; 0x8e <__bad_interrupt>
  18:	0c 94 47 00 	jmp	0x8e	; 0x8e <__bad_interrupt>
  1c:	0c 94 47 00 	jmp	0x8e	; 0x8e <__bad_interrupt>
  20:	0c 94 47 00 	jmp	0x8e	; 0x8e <__bad_interrupt>
  24:	0c 94 47 00 	jmp	0x8e	; 0x8e <__bad_interrupt>
  28:	0c 94 47 00 	jmp	0x8e	; 0x8e <__bad_interrupt>
  2c:	0c 94 47 00 	jmp	0x8e	; 0x8e <__bad_interrupt>
  30:	0c 94 47 00 	jmp	0x8e	; 0x8e <__bad_interrupt>
  34:	0c 94 47 00 	jmp	0x8e	; 0x8e <__bad_interrupt>
  38:	0c 94 47 00 	jmp	0x8e	; 0x8e <__bad_interrupt>
  3c:	0c 94 47 00 	jmp	0x8e	; 0x8e <__bad_interrupt>
  40:	0c 94 47 00 	jmp	0x8e	; 0x8e <__bad_interrupt>
  44:	0c 94 47 00 	jmp	0x8e	; 0x8e <__bad_interrupt>
  48:	0c 94 47 00 	jmp	0x8e	; 0x8e <__bad_interrupt>
  4c:	0c 94 47 00 	jmp	0x8e	; 0x8e <__bad_interrupt>
  50:	0c 94 47 00 	jmp	0x8e	; 0x8e <__bad_interrupt>

00000054 <__ctors_end>:
  54:	11 24       	eor	r1, r1
  56:	1f be       	out	0x3f, r1	; 63
  58:	cf e5       	ldi	r28, 0x5F	; 95
  5a:	d4 e0       	ldi	r29, 0x04	; 4
  5c:	de bf       	out	0x3e, r29	; 62
  5e:	cd bf       	out	0x3d, r28	; 61

00000060 <__do_copy_data>:
  60:	10 e0       	ldi	r17, 0x00	; 0
  62:	a0 e6       	ldi	r26, 0x60	; 96
  64:	b0 e0       	ldi	r27, 0x00	; 0
  66:	ee e2       	ldi	r30, 0x2E	; 46
  68:	f7 e0       	ldi	r31, 0x07	; 7
  6a:	02 c0       	rjmp	.+4      	; 0x70 <.do_copy_data_start>

0000006c <.do_copy_data_loop>:
  6c:	05 90       	lpm	r0, Z+
  6e:	0d 92       	st	X+, r0

00000070 <.do_copy_data_start>:
  70:	a0 36       	cpi	r26, 0x60	; 96
  72:	b1 07       	cpc	r27, r17
  74:	d9 f7       	brne	.-10     	; 0x6c <.do_copy_data_loop>

00000076 <__do_clear_bss>:
  76:	10 e0       	ldi	r17, 0x00	; 0
  78:	a0 e6       	ldi	r26, 0x60	; 96
  7a:	b0 e0       	ldi	r27, 0x00	; 0
  7c:	01 c0       	rjmp	.+2      	; 0x80 <.do_clear_bss_start>

0000007e <.do_clear_bss_loop>:
  7e:	1d 92       	st	X+, r1

00000080 <.do_clear_bss_start>:
  80:	a0 36       	cpi	r26, 0x60	; 96
  82:	b1 07       	cpc	r27, r17
  84:	e1 f7       	brne	.-8      	; 0x7e <.do_clear_bss_loop>
  86:	0e 94 49 00 	call	0x92	; 0x92 <main>
  8a:	0c 94 95 03 	jmp	0x72a	; 0x72a <_exit>

0000008e <__bad_interrupt>:
  8e:	0c 94 00 00 	jmp	0	; 0x0 <__vectors>

00000092 <main>:
#include<avr/io.h>
#define F_CPU 16000000UL
#include<util/delay.h>
void main()
{ 
  92:	df 92       	push	r13
  94:	ef 92       	push	r14
  96:	ff 92       	push	r15
  98:	0f 93       	push	r16
  9a:	1f 93       	push	r17
   DDRB=0b11111111;
  9c:	8f ef       	ldi	r24, 0xFF	; 255
  9e:	87 bb       	out	0x17, r24	; 23
   while(1)
   {
     PORTB=0b11000000;
  a0:	90 ec       	ldi	r25, 0xC0	; 192
  a2:	e9 2e       	mov	r14, r25
	
	DDRA=0b11111111;
  a4:	dd 24       	eor	r13, r13
  a6:	da 94       	dec	r13
    milliseconds can be achieved.
 */
void
_delay_loop_2(uint16_t __count)
{
	__asm__ volatile (
  a8:	20 e9       	ldi	r18, 0x90	; 144
  aa:	31 e0       	ldi	r19, 0x01	; 1
	 PORTA=0b11000000;
	 _delay_ms(1000);
     PORTA=0b11111001;
  ac:	09 ef       	ldi	r16, 0xF9	; 249
	 _delay_ms(1000);
	 PORTA=0b10100100;
  ae:	84 ea       	ldi	r24, 0xA4	; 164
  b0:	f8 2e       	mov	r15, r24
	 _delay_ms(1000);
	 PORTA=0b10110000;
  b2:	a0 eb       	ldi	r26, 0xB0	; 176
	 _delay_ms(1000);
	 PORTA=0b10011001;
  b4:	b9 e9       	ldi	r27, 0x99	; 153
	 _delay_ms(1000);
	 PORTA=0b10010010;
  b6:	12 e9       	ldi	r17, 0x92	; 146
	 _delay_ms(1000);
	 PORTA=0b10000010;
  b8:	52 e8       	ldi	r21, 0x82	; 130
	 _delay_ms(1000);
	 PORTA=0b11111000;
  ba:	68 ef       	ldi	r22, 0xF8	; 248
	 _delay_ms(1000);
	 PORTA=0b10000000;
  bc:	70 e8       	ldi	r23, 0x80	; 128
	 _delay_ms(1000);
	 PORTA=0b10011000;
  be:	48 e9       	ldi	r20, 0x98	; 152
void main()
{ 
   DDRB=0b11111111;
   while(1)
   {
     PORTB=0b11000000;
  c0:	e8 ba       	out	0x18, r14	; 24
	
	DDRA=0b11111111;
  c2:	da ba       	out	0x1a, r13	; 26
	 PORTA=0b11000000;
  c4:	eb ba       	out	0x1b, r14	; 27
  c6:	80 e1       	ldi	r24, 0x10	; 16
  c8:	97 e2       	ldi	r25, 0x27	; 39
  ca:	f9 01       	movw	r30, r18
  cc:	31 97       	sbiw	r30, 0x01	; 1
  ce:	f1 f7       	brne	.-4      	; 0xcc <main+0x3a>
		__ticks = (uint16_t) (__ms * 10.0);
		while(__ticks)
		{
			// wait 1/10 ms
			_delay_loop_2(((F_CPU) / 4e3) / 10);
			__ticks --;
  d0:	01 97       	sbiw	r24, 0x01	; 1
		__ticks = 1;
	else if (__tmp > 65535)
	{
		//	__ticks = requested delay in 1/10 ms
		__ticks = (uint16_t) (__ms * 10.0);
		while(__ticks)
  d2:	d9 f7       	brne	.-10     	; 0xca <main+0x38>
	 _delay_ms(1000);
     PORTA=0b11111001;
  d4:	0b bb       	out	0x1b, r16	; 27
  d6:	80 e1       	ldi	r24, 0x10	; 16
  d8:	97 e2       	ldi	r25, 0x27	; 39
  da:	f9 01       	movw	r30, r18
  dc:	31 97       	sbiw	r30, 0x01	; 1
  de:	f1 f7       	brne	.-4      	; 0xdc <main+0x4a>
		{
			// wait 1/10 ms
			_delay_loop_2(((F_CPU) / 4e3) / 10);
			__ticks --;
  e0:	01 97       	sbiw	r24, 0x01	; 1
		__ticks = 1;
	else if (__tmp > 65535)
	{
		//	__ticks = requested delay in 1/10 ms
		__ticks = (uint16_t) (__ms * 10.0);
		while(__ticks)
  e2:	d9 f7       	brne	.-10     	; 0xda <main+0x48>
	 _delay_ms(1000);
	 PORTA=0b10100100;
  e4:	fb ba       	out	0x1b, r15	; 27
  e6:	80 e1       	ldi	r24, 0x10	; 16
  e8:	97 e2       	ldi	r25, 0x27	; 39
  ea:	f9 01       	movw	r30, r18
  ec:	31 97       	sbiw	r30, 0x01	; 1
  ee:	f1 f7       	brne	.-4      	; 0xec <main+0x5a>
		{
			// wait 1/10 ms
			_delay_loop_2(((F_CPU) / 4e3) / 10);
			__ticks --;
  f0:	01 97       	sbiw	r24, 0x01	; 1
		__ticks = 1;
	else if (__tmp > 65535)
	{
		//	__ticks = requested delay in 1/10 ms
		__ticks = (uint16_t) (__ms * 10.0);
		while(__ticks)
  f2:	d9 f7       	brne	.-10     	; 0xea <main+0x58>
	 _delay_ms(1000);
	 PORTA=0b10110000;
  f4:	ab bb       	out	0x1b, r26	; 27
  f6:	80 e1       	ldi	r24, 0x10	; 16
  f8:	97 e2       	ldi	r25, 0x27	; 39
  fa:	f9 01       	movw	r30, r18
  fc:	31 97       	sbiw	r30, 0x01	; 1
  fe:	f1 f7       	brne	.-4      	; 0xfc <main+0x6a>
		{
			// wait 1/10 ms
			_delay_loop_2(((F_CPU) / 4e3) / 10);
			__ticks --;
 100:	01 97       	sbiw	r24, 0x01	; 1
		__ticks = 1;
	else if (__tmp > 65535)
	{
		//	__ticks = requested delay in 1/10 ms
		__ticks = (uint16_t) (__ms * 10.0);
		while(__ticks)
 102:	d9 f7       	brne	.-10     	; 0xfa <main+0x68>
	 _delay_ms(1000);
	 PORTA=0b10011001;
 104:	bb bb       	out	0x1b, r27	; 27
 106:	80 e1       	ldi	r24, 0x10	; 16
 108:	97 e2       	ldi	r25, 0x27	; 39
 10a:	f9 01       	movw	r30, r18
 10c:	31 97       	sbiw	r30, 0x01	; 1
 10e:	f1 f7       	brne	.-4      	; 0x10c <main+0x7a>
		{
			// wait 1/10 ms
			_delay_loop_2(((F_CPU) / 4e3) / 10);
			__ticks --;
 110:	01 97       	sbiw	r24, 0x01	; 1
		__ticks = 1;
	else if (__tmp > 65535)
	{
		//	__ticks = requested delay in 1/10 ms
		__ticks = (uint16_t) (__ms * 10.0);
		while(__ticks)
 112:	d9 f7       	brne	.-10     	; 0x10a <main+0x78>
	 _delay_ms(1000);
	 PORTA=0b10010010;
 114:	1b bb       	out	0x1b, r17	; 27
 116:	80 e1       	ldi	r24, 0x10	; 16
 118:	97 e2       	ldi	r25, 0x27	; 39
 11a:	f9 01       	movw	r30, r18
 11c:	31 97       	sbiw	r30, 0x01	; 1
 11e:	f1 f7       	brne	.-4      	; 0x11c <main+0x8a>
		{
			// wait 1/10 ms
			_delay_loop_2(((F_CPU) / 4e3) / 10);
			__ticks --;
 120:	01 97       	sbiw	r24, 0x01	; 1
		__ticks = 1;
	else if (__tmp > 65535)
	{
		//	__ticks = requested delay in 1/10 ms
		__ticks = (uint16_t) (__ms * 10.0);
		while(__ticks)
 122:	d9 f7       	brne	.-10     	; 0x11a <main+0x88>
	 _delay_ms(1000);
	 PORTA=0b10000010;
 124:	5b bb       	out	0x1b, r21	; 27
 126:	80 e1       	ldi	r24, 0x10	; 16
 128:	97 e2       	ldi	r25, 0x27	; 39
 12a:	f9 01       	movw	r30, r18
 12c:	31 97       	sbiw	r30, 0x01	; 1
 12e:	f1 f7       	brne	.-4      	; 0x12c <main+0x9a>
		{
			// wait 1/10 ms
			_delay_loop_2(((F_CPU) / 4e3) / 10);
			__ticks --;
 130:	01 97       	sbiw	r24, 0x01	; 1
		__ticks = 1;
	else if (__tmp > 65535)
	{
		//	__ticks = requested delay in 1/10 ms
		__ticks = (uint16_t) (__ms * 10.0);
		while(__ticks)
 132:	d9 f7       	brne	.-10     	; 0x12a <main+0x98>
	 _delay_ms(1000);
	 PORTA=0b11111000;
 134:	6b bb       	out	0x1b, r22	; 27
 136:	80 e1       	ldi	r24, 0x10	; 16
 138:	97 e2       	ldi	r25, 0x27	; 39
 13a:	f9 01       	movw	r30, r18
 13c:	31 97       	sbiw	r30, 0x01	; 1
 13e:	f1 f7       	brne	.-4      	; 0x13c <main+0xaa>
		{
			// wait 1/10 ms
			_delay_loop_2(((F_CPU) / 4e3) / 10);
			__ticks --;
 140:	01 97       	sbiw	r24, 0x01	; 1
		__ticks = 1;
	else if (__tmp > 65535)
	{
		//	__ticks = requested delay in 1/10 ms
		__ticks = (uint16_t) (__ms * 10.0);
		while(__ticks)
 142:	d9 f7       	brne	.-10     	; 0x13a <main+0xa8>
	 _delay_ms(1000);
	 PORTA=0b10000000;
 144:	7b bb       	out	0x1b, r23	; 27
 146:	80 e1       	ldi	r24, 0x10	; 16
 148:	97 e2       	ldi	r25, 0x27	; 39
 14a:	f9 01       	movw	r30, r18
 14c:	31 97       	sbiw	r30, 0x01	; 1
 14e:	f1 f7       	brne	.-4      	; 0x14c <main+0xba>
		{
			// wait 1/10 ms
			_delay_loop_2(((F_CPU) / 4e3) / 10);
			__ticks --;
 150:	01 97       	sbiw	r24, 0x01	; 1
		__ticks = 1;
	else if (__tmp > 65535)
	{
		//	__ticks = requested delay in 1/10 ms
		__ticks = (uint16_t) (__ms * 10.0);
		while(__ticks)
 152:	d9 f7       	brne	.-10     	; 0x14a <main+0xb8>
	 _delay_ms(1000);
	 PORTA=0b10011000;
 154:	4b bb       	out	0x1b, r20	; 27
 156:	80 e1       	ldi	r24, 0x10	; 16
 158:	97 e2       	ldi	r25, 0x27	; 39
 15a:	f9 01       	movw	r30, r18
 15c:	31 97       	sbiw	r30, 0x01	; 1
 15e:	f1 f7       	brne	.-4      	; 0x15c <main+0xca>
		{
			// wait 1/10 ms
			_delay_loop_2(((F_CPU) / 4e3) / 10);
			__ticks --;
 160:	01 97       	sbiw	r24, 0x01	; 1
		__ticks = 1;
	else if (__tmp > 65535)
	{
		//	__ticks = requested delay in 1/10 ms
		__ticks = (uint16_t) (__ms * 10.0);
		while(__ticks)
 162:	d9 f7       	brne	.-10     	; 0x15a <main+0xc8>
	 _delay_ms(1000);
	
	
	 PORTB=0b11111001;
 164:	08 bb       	out	0x18, r16	; 24
     DDRA=0b11111111;
 166:	da ba       	out	0x1a, r13	; 26
	 PORTA=0b11000000;
 168:	eb ba       	out	0x1b, r14	; 27
 16a:	80 e1       	ldi	r24, 0x10	; 16
 16c:	97 e2       	ldi	r25, 0x27	; 39
 16e:	f9 01       	movw	r30, r18
 170:	31 97       	sbiw	r30, 0x01	; 1
 172:	f1 f7       	brne	.-4      	; 0x170 <main+0xde>
		{
			// wait 1/10 ms
			_delay_loop_2(((F_CPU) / 4e3) / 10);
			__ticks --;
 174:	01 97       	sbiw	r24, 0x01	; 1
		__ticks = 1;
	else if (__tmp > 65535)
	{
		//	__ticks = requested delay in 1/10 ms
		__ticks = (uint16_t) (__ms * 10.0);
		while(__ticks)
 176:	d9 f7       	brne	.-10     	; 0x16e <main+0xdc>
	 _delay_ms(1000);
     PORTA=0b11111001;
 178:	0b bb       	out	0x1b, r16	; 27
 17a:	80 e1       	ldi	r24, 0x10	; 16
 17c:	97 e2       	ldi	r25, 0x27	; 39
 17e:	f9 01       	movw	r30, r18
 180:	31 97       	sbiw	r30, 0x01	; 1
 182:	f1 f7       	brne	.-4      	; 0x180 <main+0xee>
		{
			// wait 1/10 ms
			_delay_loop_2(((F_CPU) / 4e3) / 10);
			__ticks --;
 184:	01 97       	sbiw	r24, 0x01	; 1
		__ticks = 1;
	else if (__tmp > 65535)
	{
		//	__ticks = requested delay in 1/10 ms
		__ticks = (uint16_t) (__ms * 10.0);
		while(__ticks)
 186:	d9 f7       	brne	.-10     	; 0x17e <main+0xec>
	 _delay_ms(1000);
	 PORTA=0b10100100;
 188:	fb ba       	out	0x1b, r15	; 27
 18a:	80 e1       	ldi	r24, 0x10	; 16
 18c:	97 e2       	ldi	r25, 0x27	; 39
 18e:	f9 01       	movw	r30, r18
 190:	31 97       	sbiw	r30, 0x01	; 1
 192:	f1 f7       	brne	.-4      	; 0x190 <main+0xfe>
		{
			// wait 1/10 ms
			_delay_loop_2(((F_CPU) / 4e3) / 10);
			__ticks --;
 194:	01 97       	sbiw	r24, 0x01	; 1
		__ticks = 1;
	else if (__tmp > 65535)
	{
		//	__ticks = requested delay in 1/10 ms
		__ticks = (uint16_t) (__ms * 10.0);
		while(__ticks)
 196:	d9 f7       	brne	.-10     	; 0x18e <main+0xfc>
	 _delay_ms(1000);
	 PORTA=0b10110000;
 198:	ab bb       	out	0x1b, r26	; 27
 19a:	80 e1       	ldi	r24, 0x10	; 16
 19c:	97 e2       	ldi	r25, 0x27	; 39
 19e:	f9 01       	movw	r30, r18
 1a0:	31 97       	sbiw	r30, 0x01	; 1
 1a2:	f1 f7       	brne	.-4      	; 0x1a0 <main+0x10e>
		{
			// wait 1/10 ms
			_delay_loop_2(((F_CPU) / 4e3) / 10);
			__ticks --;
 1a4:	01 97       	sbiw	r24, 0x01	; 1
		__ticks = 1;
	else if (__tmp > 65535)
	{
		//	__ticks = requested delay in 1/10 ms
		__ticks = (uint16_t) (__ms * 10.0);
		while(__ticks)
 1a6:	d9 f7       	brne	.-10     	; 0x19e <main+0x10c>
	 _delay_ms(1000);
	 PORTA=0b10011001;
 1a8:	bb bb       	out	0x1b, r27	; 27
 1aa:	80 e1       	ldi	r24, 0x10	; 16
 1ac:	97 e2       	ldi	r25, 0x27	; 39
 1ae:	f9 01       	movw	r30, r18
 1b0:	31 97       	sbiw	r30, 0x01	; 1
 1b2:	f1 f7       	brne	.-4      	; 0x1b0 <main+0x11e>
		{
			// wait 1/10 ms
			_delay_loop_2(((F_CPU) / 4e3) / 10);
			__ticks --;
 1b4:	01 97       	sbiw	r24, 0x01	; 1
		__ticks = 1;
	else if (__tmp > 65535)
	{
		//	__ticks = requested delay in 1/10 ms
		__ticks = (uint16_t) (__ms * 10.0);
		while(__ticks)
 1b6:	d9 f7       	brne	.-10     	; 0x1ae <main+0x11c>
	 _delay_ms(1000);
	 PORTA=0b10010010;
 1b8:	1b bb       	out	0x1b, r17	; 27
 1ba:	80 e1       	ldi	r24, 0x10	; 16
 1bc:	97 e2       	ldi	r25, 0x27	; 39
 1be:	f9 01       	movw	r30, r18
 1c0:	31 97       	sbiw	r30, 0x01	; 1
 1c2:	f1 f7       	brne	.-4      	; 0x1c0 <main+0x12e>
		{
			// wait 1/10 ms
			_delay_loop_2(((F_CPU) / 4e3) / 10);
			__ticks --;
 1c4:	01 97       	sbiw	r24, 0x01	; 1
		__ticks = 1;
	else if (__tmp > 65535)
	{
		//	__ticks = requested delay in 1/10 ms
		__ticks = (uint16_t) (__ms * 10.0);
		while(__ticks)
 1c6:	d9 f7       	brne	.-10     	; 0x1be <main+0x12c>
	 _delay_ms(1000);
	 PORTA=0b10000010;
 1c8:	5b bb       	out	0x1b, r21	; 27
 1ca:	80 e1       	ldi	r24, 0x10	; 16
 1cc:	97 e2       	ldi	r25, 0x27	; 39
 1ce:	f9 01       	movw	r30, r18
 1d0:	31 97       	sbiw	r30, 0x01	; 1
 1d2:	f1 f7       	brne	.-4      	; 0x1d0 <main+0x13e>
		{
			// wait 1/10 ms
			_delay_loop_2(((F_CPU) / 4e3) / 10);
			__ticks --;
 1d4:	01 97       	sbiw	r24, 0x01	; 1
		__ticks = 1;
	else if (__tmp > 65535)
	{
		//	__ticks = requested delay in 1/10 ms
		__ticks = (uint16_t) (__ms * 10.0);
		while(__ticks)
 1d6:	d9 f7       	brne	.-10     	; 0x1ce <main+0x13c>
	 _delay_ms(1000);
	 PORTA=0b11111000;
 1d8:	6b bb       	out	0x1b, r22	; 27
 1da:	80 e1       	ldi	r24, 0x10	; 16
 1dc:	97 e2       	ldi	r25, 0x27	; 39
 1de:	f9 01       	movw	r30, r18
 1e0:	31 97       	sbiw	r30, 0x01	; 1
 1e2:	f1 f7       	brne	.-4      	; 0x1e0 <main+0x14e>
		{
			// wait 1/10 ms
			_delay_loop_2(((F_CPU) / 4e3) / 10);
			__ticks --;
 1e4:	01 97       	sbiw	r24, 0x01	; 1
		__ticks = 1;
	else if (__tmp > 65535)
	{
		//	__ticks = requested delay in 1/10 ms
		__ticks = (uint16_t) (__ms * 10.0);
		while(__ticks)
 1e6:	d9 f7       	brne	.-10     	; 0x1de <main+0x14c>
	 _delay_ms(1000);
	 PORTA=0b10000000;
 1e8:	7b bb       	out	0x1b, r23	; 27
 1ea:	80 e1       	ldi	r24, 0x10	; 16
 1ec:	97 e2       	ldi	r25, 0x27	; 39
 1ee:	f9 01       	movw	r30, r18
 1f0:	31 97       	sbiw	r30, 0x01	; 1
 1f2:	f1 f7       	brne	.-4      	; 0x1f0 <main+0x15e>
		{
			// wait 1/10 ms
			_delay_loop_2(((F_CPU) / 4e3) / 10);
			__ticks --;
 1f4:	01 97       	sbiw	r24, 0x01	; 1
		__ticks = 1;
	else if (__tmp > 65535)
	{
		//	__ticks = requested delay in 1/10 ms
		__ticks = (uint16_t) (__ms * 10.0);
		while(__ticks)
 1f6:	d9 f7       	brne	.-10     	; 0x1ee <main+0x15c>
	 _delay_ms(1000);
	 PORTA=0b10011000;
 1f8:	4b bb       	out	0x1b, r20	; 27
 1fa:	80 e1       	ldi	r24, 0x10	; 16
 1fc:	97 e2       	ldi	r25, 0x27	; 39
 1fe:	f9 01       	movw	r30, r18
 200:	31 97       	sbiw	r30, 0x01	; 1
 202:	f1 f7       	brne	.-4      	; 0x200 <main+0x16e>
		{
			// wait 1/10 ms
			_delay_loop_2(((F_CPU) / 4e3) / 10);
			__ticks --;
 204:	01 97       	sbiw	r24, 0x01	; 1
		__ticks = 1;
	else if (__tmp > 65535)
	{
		//	__ticks = requested delay in 1/10 ms
		__ticks = (uint16_t) (__ms * 10.0);
		while(__ticks)
 206:	d9 f7       	brne	.-10     	; 0x1fe <main+0x16c>
     _delay_ms(1000);
	 
	 
	 PORTB=0b10100100;
 208:	f8 ba       	out	0x18, r15	; 24
     DDRA=0b11111111;
 20a:	da ba       	out	0x1a, r13	; 26
	 PORTA=0b11000000;
 20c:	eb ba       	out	0x1b, r14	; 27
 20e:	80 e1       	ldi	r24, 0x10	; 16
 210:	97 e2       	ldi	r25, 0x27	; 39
 212:	f9 01       	movw	r30, r18
 214:	31 97       	sbiw	r30, 0x01	; 1
 216:	f1 f7       	brne	.-4      	; 0x214 <main+0x182>
		{
			// wait 1/10 ms
			_delay_loop_2(((F_CPU) / 4e3) / 10);
			__ticks --;
 218:	01 97       	sbiw	r24, 0x01	; 1
		__ticks = 1;
	else if (__tmp > 65535)
	{
		//	__ticks = requested delay in 1/10 ms
		__ticks = (uint16_t) (__ms * 10.0);
		while(__ticks)
 21a:	d9 f7       	brne	.-10     	; 0x212 <main+0x180>
	 _delay_ms(1000);
     PORTA=0b11111001;
 21c:	0b bb       	out	0x1b, r16	; 27
 21e:	80 e1       	ldi	r24, 0x10	; 16
 220:	97 e2       	ldi	r25, 0x27	; 39
 222:	f9 01       	movw	r30, r18
 224:	31 97       	sbiw	r30, 0x01	; 1
 226:	f1 f7       	brne	.-4      	; 0x224 <main+0x192>
		{
			// wait 1/10 ms
			_delay_loop_2(((F_CPU) / 4e3) / 10);
			__ticks --;
 228:	01 97       	sbiw	r24, 0x01	; 1
		__ticks = 1;
	else if (__tmp > 65535)
	{
		//	__ticks = requested delay in 1/10 ms
		__ticks = (uint16_t) (__ms * 10.0);
		while(__ticks)
 22a:	d9 f7       	brne	.-10     	; 0x222 <main+0x190>
	 _delay_ms(1000);
	 PORTA=0b10100100;
 22c:	fb ba       	out	0x1b, r15	; 27
 22e:	80 e1       	ldi	r24, 0x10	; 16
 230:	97 e2       	ldi	r25, 0x27	; 39
 232:	f9 01       	movw	r30, r18
 234:	31 97       	sbiw	r30, 0x01	; 1
 236:	f1 f7       	brne	.-4      	; 0x234 <main+0x1a2>
		{
			// wait 1/10 ms
			_delay_loop_2(((F_CPU) / 4e3) / 10);
			__ticks --;
 238:	01 97       	sbiw	r24, 0x01	; 1
		__ticks = 1;
	else if (__tmp > 65535)
	{
		//	__ticks = requested delay in 1/10 ms
		__ticks = (uint16_t) (__ms * 10.0);
		while(__ticks)
 23a:	d9 f7       	brne	.-10     	; 0x232 <main+0x1a0>
	 _delay_ms(1000);
	 PORTA=0b10110000;
 23c:	ab bb       	out	0x1b, r26	; 27
 23e:	80 e1       	ldi	r24, 0x10	; 16
 240:	97 e2       	ldi	r25, 0x27	; 39
 242:	f9 01       	movw	r30, r18
 244:	31 97       	sbiw	r30, 0x01	; 1
 246:	f1 f7       	brne	.-4      	; 0x244 <main+0x1b2>
		{
			// wait 1/10 ms
			_delay_loop_2(((F_CPU) / 4e3) / 10);
			__ticks --;
 248:	01 97       	sbiw	r24, 0x01	; 1
		__ticks = 1;
	else if (__tmp > 65535)
	{
		//	__ticks = requested delay in 1/10 ms
		__ticks = (uint16_t) (__ms * 10.0);
		while(__ticks)
 24a:	d9 f7       	brne	.-10     	; 0x242 <main+0x1b0>
	 _delay_ms(1000);
	 PORTA=0b10011001;
 24c:	bb bb       	out	0x1b, r27	; 27
 24e:	80 e1       	ldi	r24, 0x10	; 16
 250:	97 e2       	ldi	r25, 0x27	; 39
 252:	f9 01       	movw	r30, r18
 254:	31 97       	sbiw	r30, 0x01	; 1
 256:	f1 f7       	brne	.-4      	; 0x254 <main+0x1c2>
		{
			// wait 1/10 ms
			_delay_loop_2(((F_CPU) / 4e3) / 10);
			__ticks --;
 258:	01 97       	sbiw	r24, 0x01	; 1
		__ticks = 1;
	else if (__tmp > 65535)
	{
		//	__ticks = requested delay in 1/10 ms
		__ticks = (uint16_t) (__ms * 10.0);
		while(__ticks)
 25a:	d9 f7       	brne	.-10     	; 0x252 <main+0x1c0>
	 _delay_ms(1000);
	 PORTA=0b10010010;
 25c:	1b bb       	out	0x1b, r17	; 27
 25e:	80 e1       	ldi	r24, 0x10	; 16
 260:	97 e2       	ldi	r25, 0x27	; 39
 262:	f9 01       	movw	r30, r18
 264:	31 97       	sbiw	r30, 0x01	; 1
 266:	f1 f7       	brne	.-4      	; 0x264 <main+0x1d2>
		{
			// wait 1/10 ms
			_delay_loop_2(((F_CPU) / 4e3) / 10);
			__ticks --;
 268:	01 97       	sbiw	r24, 0x01	; 1
		__ticks = 1;
	else if (__tmp > 65535)
	{
		//	__ticks = requested delay in 1/10 ms
		__ticks = (uint16_t) (__ms * 10.0);
		while(__ticks)
 26a:	d9 f7       	brne	.-10     	; 0x262 <main+0x1d0>
	 _delay_ms(1000);
	 PORTA=0b10000010;
 26c:	5b bb       	out	0x1b, r21	; 27
 26e:	80 e1       	ldi	r24, 0x10	; 16
 270:	97 e2       	ldi	r25, 0x27	; 39
 272:	f9 01       	movw	r30, r18
 274:	31 97       	sbiw	r30, 0x01	; 1
 276:	f1 f7       	brne	.-4      	; 0x274 <main+0x1e2>
		{
			// wait 1/10 ms
			_delay_loop_2(((F_CPU) / 4e3) / 10);
			__ticks --;
 278:	01 97       	sbiw	r24, 0x01	; 1
		__ticks = 1;
	else if (__tmp > 65535)
	{
		//	__ticks = requested delay in 1/10 ms
		__ticks = (uint16_t) (__ms * 10.0);
		while(__ticks)
 27a:	d9 f7       	brne	.-10     	; 0x272 <main+0x1e0>
	 _delay_ms(1000);
	 PORTA=0b11111000;
 27c:	6b bb       	out	0x1b, r22	; 27
 27e:	80 e1       	ldi	r24, 0x10	; 16
 280:	97 e2       	ldi	r25, 0x27	; 39
 282:	f9 01       	movw	r30, r18
 284:	31 97       	sbiw	r30, 0x01	; 1
 286:	f1 f7       	brne	.-4      	; 0x284 <main+0x1f2>
		{
			// wait 1/10 ms
			_delay_loop_2(((F_CPU) / 4e3) / 10);
			__ticks --;
 288:	01 97       	sbiw	r24, 0x01	; 1
		__ticks = 1;
	else if (__tmp > 65535)
	{
		//	__ticks = requested delay in 1/10 ms
		__ticks = (uint16_t) (__ms * 10.0);
		while(__ticks)
 28a:	d9 f7       	brne	.-10     	; 0x282 <main+0x1f0>
	 _delay_ms(1000);
	 PORTA=0b10000000;
 28c:	7b bb       	out	0x1b, r23	; 27
 28e:	80 e1       	ldi	r24, 0x10	; 16
 290:	97 e2       	ldi	r25, 0x27	; 39
 292:	f9 01       	movw	r30, r18
 294:	31 97       	sbiw	r30, 0x01	; 1
 296:	f1 f7       	brne	.-4      	; 0x294 <main+0x202>
		{
			// wait 1/10 ms
			_delay_loop_2(((F_CPU) / 4e3) / 10);
			__ticks --;
 298:	01 97       	sbiw	r24, 0x01	; 1
		__ticks = 1;
	else if (__tmp > 65535)
	{
		//	__ticks = requested delay in 1/10 ms
		__ticks = (uint16_t) (__ms * 10.0);
		while(__ticks)
 29a:	d9 f7       	brne	.-10     	; 0x292 <main+0x200>
	 _delay_ms(1000);
	 PORTA=0b10011000;
 29c:	4b bb       	out	0x1b, r20	; 27
 29e:	80 e1       	ldi	r24, 0x10	; 16
 2a0:	97 e2       	ldi	r25, 0x27	; 39
 2a2:	f9 01       	movw	r30, r18
 2a4:	31 97       	sbiw	r30, 0x01	; 1
 2a6:	f1 f7       	brne	.-4      	; 0x2a4 <main+0x212>
		{
			// wait 1/10 ms
			_delay_loop_2(((F_CPU) / 4e3) / 10);
			__ticks --;
 2a8:	01 97       	sbiw	r24, 0x01	; 1
		__ticks = 1;
	else if (__tmp > 65535)
	{
		//	__ticks = requested delay in 1/10 ms
		__ticks = (uint16_t) (__ms * 10.0);
		while(__ticks)
 2aa:	d9 f7       	brne	.-10     	; 0x2a2 <main+0x210>
     _delay_ms(1000);
	 
	 
	 PORTB=0b10110000;
 2ac:	a8 bb       	out	0x18, r26	; 24
	 DDRA=0b11111111;
 2ae:	da ba       	out	0x1a, r13	; 26
	 PORTA=0b11000000;
 2b0:	eb ba       	out	0x1b, r14	; 27
 2b2:	80 e1       	ldi	r24, 0x10	; 16
 2b4:	97 e2       	ldi	r25, 0x27	; 39
 2b6:	f9 01       	movw	r30, r18
 2b8:	31 97       	sbiw	r30, 0x01	; 1
 2ba:	f1 f7       	brne	.-4      	; 0x2b8 <main+0x226>
		{
			// wait 1/10 ms
			_delay_loop_2(((F_CPU) / 4e3) / 10);
			__ticks --;
 2bc:	01 97       	sbiw	r24, 0x01	; 1
		__ticks = 1;
	else if (__tmp > 65535)
	{
		//	__ticks = requested delay in 1/10 ms
		__ticks = (uint16_t) (__ms * 10.0);
		while(__ticks)
 2be:	d9 f7       	brne	.-10     	; 0x2b6 <main+0x224>
	 _delay_ms(1000);
     PORTA=0b11111001;
 2c0:	0b bb       	out	0x1b, r16	; 27
 2c2:	80 e1       	ldi	r24, 0x10	; 16
 2c4:	97 e2       	ldi	r25, 0x27	; 39
 2c6:	f9 01       	movw	r30, r18
 2c8:	31 97       	sbiw	r30, 0x01	; 1
 2ca:	f1 f7       	brne	.-4      	; 0x2c8 <main+0x236>
		{
			// wait 1/10 ms
			_delay_loop_2(((F_CPU) / 4e3) / 10);
			__ticks --;
 2cc:	01 97       	sbiw	r24, 0x01	; 1
		__ticks = 1;
	else if (__tmp > 65535)
	{
		//	__ticks = requested delay in 1/10 ms
		__ticks = (uint16_t) (__ms * 10.0);
		while(__ticks)
 2ce:	d9 f7       	brne	.-10     	; 0x2c6 <main+0x234>
	 _delay_ms(1000);
	 PORTA=0b10100100;
 2d0:	fb ba       	out	0x1b, r15	; 27
 2d2:	80 e1       	ldi	r24, 0x10	; 16
 2d4:	97 e2       	ldi	r25, 0x27	; 39
 2d6:	f9 01       	movw	r30, r18
 2d8:	31 97       	sbiw	r30, 0x01	; 1
 2da:	f1 f7       	brne	.-4      	; 0x2d8 <main+0x246>
		{
			// wait 1/10 ms
			_delay_loop_2(((F_CPU) / 4e3) / 10);
			__ticks --;
 2dc:	01 97       	sbiw	r24, 0x01	; 1
		__ticks = 1;
	else if (__tmp > 65535)
	{
		//	__ticks = requested delay in 1/10 ms
		__ticks = (uint16_t) (__ms * 10.0);
		while(__ticks)
 2de:	d9 f7       	brne	.-10     	; 0x2d6 <main+0x244>
	 _delay_ms(1000);
	 PORTA=0b10110000;
 2e0:	ab bb       	out	0x1b, r26	; 27
 2e2:	80 e1       	ldi	r24, 0x10	; 16
 2e4:	97 e2       	ldi	r25, 0x27	; 39
 2e6:	f9 01       	movw	r30, r18
 2e8:	31 97       	sbiw	r30, 0x01	; 1
 2ea:	f1 f7       	brne	.-4      	; 0x2e8 <main+0x256>
		{
			// wait 1/10 ms
			_delay_loop_2(((F_CPU) / 4e3) / 10);
			__ticks --;
 2ec:	01 97       	sbiw	r24, 0x01	; 1
		__ticks = 1;
	else if (__tmp > 65535)
	{
		//	__ticks = requested delay in 1/10 ms
		__ticks = (uint16_t) (__ms * 10.0);
		while(__ticks)
 2ee:	d9 f7       	brne	.-10     	; 0x2e6 <main+0x254>
	 _delay_ms(1000);
	 PORTA=0b10011001;
 2f0:	bb bb       	out	0x1b, r27	; 27
 2f2:	80 e1       	ldi	r24, 0x10	; 16
 2f4:	97 e2       	ldi	r25, 0x27	; 39
 2f6:	f9 01       	movw	r30, r18
 2f8:	31 97       	sbiw	r30, 0x01	; 1
 2fa:	f1 f7       	brne	.-4      	; 0x2f8 <main+0x266>
		{
			// wait 1/10 ms
			_delay_loop_2(((F_CPU) / 4e3) / 10);
			__ticks --;
 2fc:	01 97       	sbiw	r24, 0x01	; 1
		__ticks = 1;
	else if (__tmp > 65535)
	{
		//	__ticks = requested delay in 1/10 ms
		__ticks = (uint16_t) (__ms * 10.0);
		while(__ticks)
 2fe:	d9 f7       	brne	.-10     	; 0x2f6 <main+0x264>
	 _delay_ms(1000);
	 PORTA=0b10010010;
 300:	1b bb       	out	0x1b, r17	; 27
 302:	80 e1       	ldi	r24, 0x10	; 16
 304:	97 e2       	ldi	r25, 0x27	; 39
 306:	f9 01       	movw	r30, r18
 308:	31 97       	sbiw	r30, 0x01	; 1
 30a:	f1 f7       	brne	.-4      	; 0x308 <main+0x276>
		{
			// wait 1/10 ms
			_delay_loop_2(((F_CPU) / 4e3) / 10);
			__ticks --;
 30c:	01 97       	sbiw	r24, 0x01	; 1
		__ticks = 1;
	else if (__tmp > 65535)
	{
		//	__ticks = requested delay in 1/10 ms
		__ticks = (uint16_t) (__ms * 10.0);
		while(__ticks)
 30e:	d9 f7       	brne	.-10     	; 0x306 <main+0x274>
	 _delay_ms(1000);
	 PORTA=0b10000010;
 310:	5b bb       	out	0x1b, r21	; 27
 312:	80 e1       	ldi	r24, 0x10	; 16
 314:	97 e2       	ldi	r25, 0x27	; 39
 316:	f9 01       	movw	r30, r18
 318:	31 97       	sbiw	r30, 0x01	; 1
 31a:	f1 f7       	brne	.-4      	; 0x318 <main+0x286>
		{
			// wait 1/10 ms
			_delay_loop_2(((F_CPU) / 4e3) / 10);
			__ticks --;
 31c:	01 97       	sbiw	r24, 0x01	; 1
		__ticks = 1;
	else if (__tmp > 65535)
	{
		//	__ticks = requested delay in 1/10 ms
		__ticks = (uint16_t) (__ms * 10.0);
		while(__ticks)
 31e:	d9 f7       	brne	.-10     	; 0x316 <main+0x284>
	 _delay_ms(1000);
	 PORTA=0b11111000;
 320:	6b bb       	out	0x1b, r22	; 27
 322:	80 e1       	ldi	r24, 0x10	; 16
 324:	97 e2       	ldi	r25, 0x27	; 39
 326:	f9 01       	movw	r30, r18
 328:	31 97       	sbiw	r30, 0x01	; 1
 32a:	f1 f7       	brne	.-4      	; 0x328 <main+0x296>
		{
			// wait 1/10 ms
			_delay_loop_2(((F_CPU) / 4e3) / 10);
			__ticks --;
 32c:	01 97       	sbiw	r24, 0x01	; 1
		__ticks = 1;
	else if (__tmp > 65535)
	{
		//	__ticks = requested delay in 1/10 ms
		__ticks = (uint16_t) (__ms * 10.0);
		while(__ticks)
 32e:	d9 f7       	brne	.-10     	; 0x326 <main+0x294>
	 _delay_ms(1000);
	 PORTA=0b10000000;
 330:	7b bb       	out	0x1b, r23	; 27
 332:	80 e1       	ldi	r24, 0x10	; 16
 334:	97 e2       	ldi	r25, 0x27	; 39
 336:	f9 01       	movw	r30, r18
 338:	31 97       	sbiw	r30, 0x01	; 1
 33a:	f1 f7       	brne	.-4      	; 0x338 <main+0x2a6>
		{
			// wait 1/10 ms
			_delay_loop_2(((F_CPU) / 4e3) / 10);
			__ticks --;
 33c:	01 97       	sbiw	r24, 0x01	; 1
		__ticks = 1;
	else if (__tmp > 65535)
	{
		//	__ticks = requested delay in 1/10 ms
		__ticks = (uint16_t) (__ms * 10.0);
		while(__ticks)
 33e:	d9 f7       	brne	.-10     	; 0x336 <main+0x2a4>
	 _delay_ms(1000);
	 PORTA=0b10011000;
 340:	4b bb       	out	0x1b, r20	; 27
 342:	80 e1       	ldi	r24, 0x10	; 16
 344:	97 e2       	ldi	r25, 0x27	; 39
 346:	f9 01       	movw	r30, r18
 348:	31 97       	sbiw	r30, 0x01	; 1
 34a:	f1 f7       	brne	.-4      	; 0x348 <main+0x2b6>
		{
			// wait 1/10 ms
			_delay_loop_2(((F_CPU) / 4e3) / 10);
			__ticks --;
 34c:	01 97       	sbiw	r24, 0x01	; 1
		__ticks = 1;
	else if (__tmp > 65535)
	{
		//	__ticks = requested delay in 1/10 ms
		__ticks = (uint16_t) (__ms * 10.0);
		while(__ticks)
 34e:	d9 f7       	brne	.-10     	; 0x346 <main+0x2b4>
	 _delay_ms(1000);


	 PORTB=0b10011001;
 350:	b8 bb       	out	0x18, r27	; 24
	 DDRA=0b11111111;
 352:	da ba       	out	0x1a, r13	; 26
	 PORTA=0b11000000;
 354:	eb ba       	out	0x1b, r14	; 27
 356:	80 e1       	ldi	r24, 0x10	; 16
 358:	97 e2       	ldi	r25, 0x27	; 39
 35a:	f9 01       	movw	r30, r18
 35c:	31 97       	sbiw	r30, 0x01	; 1
 35e:	f1 f7       	brne	.-4      	; 0x35c <main+0x2ca>
		{
			// wait 1/10 ms
			_delay_loop_2(((F_CPU) / 4e3) / 10);
			__ticks --;
 360:	01 97       	sbiw	r24, 0x01	; 1
		__ticks = 1;
	else if (__tmp > 65535)
	{
		//	__ticks = requested delay in 1/10 ms
		__ticks = (uint16_t) (__ms * 10.0);
		while(__ticks)
 362:	d9 f7       	brne	.-10     	; 0x35a <main+0x2c8>
	 _delay_ms(1000);
     PORTA=0b11111001;
 364:	0b bb       	out	0x1b, r16	; 27
 366:	80 e1       	ldi	r24, 0x10	; 16
 368:	97 e2       	ldi	r25, 0x27	; 39
 36a:	f9 01       	movw	r30, r18
 36c:	31 97       	sbiw	r30, 0x01	; 1
 36e:	f1 f7       	brne	.-4      	; 0x36c <main+0x2da>
		{
			// wait 1/10 ms
			_delay_loop_2(((F_CPU) / 4e3) / 10);
			__ticks --;
 370:	01 97       	sbiw	r24, 0x01	; 1
		__ticks = 1;
	else if (__tmp > 65535)
	{
		//	__ticks = requested delay in 1/10 ms
		__ticks = (uint16_t) (__ms * 10.0);
		while(__ticks)
 372:	d9 f7       	brne	.-10     	; 0x36a <main+0x2d8>
	 _delay_ms(1000);
	 PORTA=0b10100100;
 374:	fb ba       	out	0x1b, r15	; 27
 376:	80 e1       	ldi	r24, 0x10	; 16
 378:	97 e2       	ldi	r25, 0x27	; 39
 37a:	f9 01       	movw	r30, r18
 37c:	31 97       	sbiw	r30, 0x01	; 1
 37e:	f1 f7       	brne	.-4      	; 0x37c <main+0x2ea>
		{
			// wait 1/10 ms
			_delay_loop_2(((F_CPU) / 4e3) / 10);
			__ticks --;
 380:	01 97       	sbiw	r24, 0x01	; 1
		__ticks = 1;
	else if (__tmp > 65535)
	{
		//	__ticks = requested delay in 1/10 ms
		__ticks = (uint16_t) (__ms * 10.0);
		while(__ticks)
 382:	d9 f7       	brne	.-10     	; 0x37a <main+0x2e8>
	 _delay_ms(1000);
	 PORTA=0b10110000;
 384:	ab bb       	out	0x1b, r26	; 27
 386:	80 e1       	ldi	r24, 0x10	; 16
 388:	97 e2       	ldi	r25, 0x27	; 39
 38a:	f9 01       	movw	r30, r18
 38c:	31 97       	sbiw	r30, 0x01	; 1
 38e:	f1 f7       	brne	.-4      	; 0x38c <main+0x2fa>
		{
			// wait 1/10 ms
			_delay_loop_2(((F_CPU) / 4e3) / 10);
			__ticks --;
 390:	01 97       	sbiw	r24, 0x01	; 1
		__ticks = 1;
	else if (__tmp > 65535)
	{
		//	__ticks = requested delay in 1/10 ms
		__ticks = (uint16_t) (__ms * 10.0);
		while(__ticks)
 392:	d9 f7       	brne	.-10     	; 0x38a <main+0x2f8>
	 _delay_ms(1000);
	 PORTA=0b10011001;
 394:	bb bb       	out	0x1b, r27	; 27
 396:	80 e1       	ldi	r24, 0x10	; 16
 398:	97 e2       	ldi	r25, 0x27	; 39
 39a:	f9 01       	movw	r30, r18
 39c:	31 97       	sbiw	r30, 0x01	; 1
 39e:	f1 f7       	brne	.-4      	; 0x39c <main+0x30a>
		{
			// wait 1/10 ms
			_delay_loop_2(((F_CPU) / 4e3) / 10);
			__ticks --;
 3a0:	01 97       	sbiw	r24, 0x01	; 1
		__ticks = 1;
	else if (__tmp > 65535)
	{
		//	__ticks = requested delay in 1/10 ms
		__ticks = (uint16_t) (__ms * 10.0);
		while(__ticks)
 3a2:	d9 f7       	brne	.-10     	; 0x39a <main+0x308>
	 _delay_ms(1000);
	 PORTA=0b10010010;
 3a4:	1b bb       	out	0x1b, r17	; 27
 3a6:	80 e1       	ldi	r24, 0x10	; 16
 3a8:	97 e2       	ldi	r25, 0x27	; 39
 3aa:	f9 01       	movw	r30, r18
 3ac:	31 97       	sbiw	r30, 0x01	; 1
 3ae:	f1 f7       	brne	.-4      	; 0x3ac <main+0x31a>
		{
			// wait 1/10 ms
			_delay_loop_2(((F_CPU) / 4e3) / 10);
			__ticks --;
 3b0:	01 97       	sbiw	r24, 0x01	; 1
		__ticks = 1;
	else if (__tmp > 65535)
	{
		//	__ticks = requested delay in 1/10 ms
		__ticks = (uint16_t) (__ms * 10.0);
		while(__ticks)
 3b2:	d9 f7       	brne	.-10     	; 0x3aa <main+0x318>
	 _delay_ms(1000);
	 PORTA=0b10000010;
 3b4:	5b bb       	out	0x1b, r21	; 27
 3b6:	80 e1       	ldi	r24, 0x10	; 16
 3b8:	97 e2       	ldi	r25, 0x27	; 39
 3ba:	f9 01       	movw	r30, r18
 3bc:	31 97       	sbiw	r30, 0x01	; 1
 3be:	f1 f7       	brne	.-4      	; 0x3bc <main+0x32a>
		{
			// wait 1/10 ms
			_delay_loop_2(((F_CPU) / 4e3) / 10);
			__ticks --;
 3c0:	01 97       	sbiw	r24, 0x01	; 1
		__ticks = 1;
	else if (__tmp > 65535)
	{
		//	__ticks = requested delay in 1/10 ms
		__ticks = (uint16_t) (__ms * 10.0);
		while(__ticks)
 3c2:	d9 f7       	brne	.-10     	; 0x3ba <main+0x328>
	 _delay_ms(1000);
	 PORTA=0b11111000;
 3c4:	6b bb       	out	0x1b, r22	; 27
 3c6:	80 e1       	ldi	r24, 0x10	; 16
 3c8:	97 e2       	ldi	r25, 0x27	; 39
 3ca:	f9 01       	movw	r30, r18
 3cc:	31 97       	sbiw	r30, 0x01	; 1
 3ce:	f1 f7       	brne	.-4      	; 0x3cc <main+0x33a>
		{
			// wait 1/10 ms
			_delay_loop_2(((F_CPU) / 4e3) / 10);
			__ticks --;
 3d0:	01 97       	sbiw	r24, 0x01	; 1
		__ticks = 1;
	else if (__tmp > 65535)
	{
		//	__ticks = requested delay in 1/10 ms
		__ticks = (uint16_t) (__ms * 10.0);
		while(__ticks)
 3d2:	d9 f7       	brne	.-10     	; 0x3ca <main+0x338>
	 _delay_ms(1000);
	 PORTA=0b10000000;
 3d4:	7b bb       	out	0x1b, r23	; 27
 3d6:	80 e1       	ldi	r24, 0x10	; 16
 3d8:	97 e2       	ldi	r25, 0x27	; 39
 3da:	f9 01       	movw	r30, r18
 3dc:	31 97       	sbiw	r30, 0x01	; 1
 3de:	f1 f7       	brne	.-4      	; 0x3dc <main+0x34a>
		{
			// wait 1/10 ms
			_delay_loop_2(((F_CPU) / 4e3) / 10);
			__ticks --;
 3e0:	01 97       	sbiw	r24, 0x01	; 1
		__ticks = 1;
	else if (__tmp > 65535)
	{
		//	__ticks = requested delay in 1/10 ms
		__ticks = (uint16_t) (__ms * 10.0);
		while(__ticks)
 3e2:	d9 f7       	brne	.-10     	; 0x3da <main+0x348>
	 _delay_ms(1000);
	 PORTA=0b10011000;
 3e4:	4b bb       	out	0x1b, r20	; 27
 3e6:	80 e1       	ldi	r24, 0x10	; 16
 3e8:	97 e2       	ldi	r25, 0x27	; 39
 3ea:	f9 01       	movw	r30, r18
 3ec:	31 97       	sbiw	r30, 0x01	; 1
 3ee:	f1 f7       	brne	.-4      	; 0x3ec <main+0x35a>
		{
			// wait 1/10 ms
			_delay_loop_2(((F_CPU) / 4e3) / 10);
			__ticks --;
 3f0:	01 97       	sbiw	r24, 0x01	; 1
		__ticks = 1;
	else if (__tmp > 65535)
	{
		//	__ticks = requested delay in 1/10 ms
		__ticks = (uint16_t) (__ms * 10.0);
		while(__ticks)
 3f2:	d9 f7       	brne	.-10     	; 0x3ea <main+0x358>
	 _delay_ms(1000);
	 
	 
	 PORTB=0b10010010;
 3f4:	18 bb       	out	0x18, r17	; 24
	 DDRA=0b11111111;
 3f6:	da ba       	out	0x1a, r13	; 26
	 PORTA=0b11000000;
 3f8:	eb ba       	out	0x1b, r14	; 27
 3fa:	80 e1       	ldi	r24, 0x10	; 16
 3fc:	97 e2       	ldi	r25, 0x27	; 39
 3fe:	f9 01       	movw	r30, r18
 400:	31 97       	sbiw	r30, 0x01	; 1
 402:	f1 f7       	brne	.-4      	; 0x400 <main+0x36e>
		{
			// wait 1/10 ms
			_delay_loop_2(((F_CPU) / 4e3) / 10);
			__ticks --;
 404:	01 97       	sbiw	r24, 0x01	; 1
		__ticks = 1;
	else if (__tmp > 65535)
	{
		//	__ticks = requested delay in 1/10 ms
		__ticks = (uint16_t) (__ms * 10.0);
		while(__ticks)
 406:	d9 f7       	brne	.-10     	; 0x3fe <main+0x36c>
	 _delay_ms(1000);
     PORTA=0b11111001;
 408:	0b bb       	out	0x1b, r16	; 27
 40a:	80 e1       	ldi	r24, 0x10	; 16
 40c:	97 e2       	ldi	r25, 0x27	; 39
 40e:	f9 01       	movw	r30, r18
 410:	31 97       	sbiw	r30, 0x01	; 1
 412:	f1 f7       	brne	.-4      	; 0x410 <main+0x37e>
		{
			// wait 1/10 ms
			_delay_loop_2(((F_CPU) / 4e3) / 10);
			__ticks --;
 414:	01 97       	sbiw	r24, 0x01	; 1
		__ticks = 1;
	else if (__tmp > 65535)
	{
		//	__ticks = requested delay in 1/10 ms
		__ticks = (uint16_t) (__ms * 10.0);
		while(__ticks)
 416:	d9 f7       	brne	.-10     	; 0x40e <main+0x37c>
	 _delay_ms(1000);
	 PORTA=0b10100100;
 418:	fb ba       	out	0x1b, r15	; 27
 41a:	80 e1       	ldi	r24, 0x10	; 16
 41c:	97 e2       	ldi	r25, 0x27	; 39
 41e:	f9 01       	movw	r30, r18
 420:	31 97       	sbiw	r30, 0x01	; 1
 422:	f1 f7       	brne	.-4      	; 0x420 <main+0x38e>
		{
			// wait 1/10 ms
			_delay_loop_2(((F_CPU) / 4e3) / 10);
			__ticks --;
 424:	01 97       	sbiw	r24, 0x01	; 1
		__ticks = 1;
	else if (__tmp > 65535)
	{
		//	__ticks = requested delay in 1/10 ms
		__ticks = (uint16_t) (__ms * 10.0);
		while(__ticks)
 426:	d9 f7       	brne	.-10     	; 0x41e <main+0x38c>
	 _delay_ms(1000);
	 PORTA=0b10110000;
 428:	ab bb       	out	0x1b, r26	; 27
 42a:	80 e1       	ldi	r24, 0x10	; 16
 42c:	97 e2       	ldi	r25, 0x27	; 39
 42e:	f9 01       	movw	r30, r18
 430:	31 97       	sbiw	r30, 0x01	; 1
 432:	f1 f7       	brne	.-4      	; 0x430 <main+0x39e>
		{
			// wait 1/10 ms
			_delay_loop_2(((F_CPU) / 4e3) / 10);
			__ticks --;
 434:	01 97       	sbiw	r24, 0x01	; 1
		__ticks = 1;
	else if (__tmp > 65535)
	{
		//	__ticks = requested delay in 1/10 ms
		__ticks = (uint16_t) (__ms * 10.0);
		while(__ticks)
 436:	d9 f7       	brne	.-10     	; 0x42e <main+0x39c>
	 _delay_ms(1000);
	 PORTA=0b10011001;
 438:	bb bb       	out	0x1b, r27	; 27
 43a:	80 e1       	ldi	r24, 0x10	; 16
 43c:	97 e2       	ldi	r25, 0x27	; 39
 43e:	f9 01       	movw	r30, r18
 440:	31 97       	sbiw	r30, 0x01	; 1
 442:	f1 f7       	brne	.-4      	; 0x440 <main+0x3ae>
		{
			// wait 1/10 ms
			_delay_loop_2(((F_CPU) / 4e3) / 10);
			__ticks --;
 444:	01 97       	sbiw	r24, 0x01	; 1
		__ticks = 1;
	else if (__tmp > 65535)
	{
		//	__ticks = requested delay in 1/10 ms
		__ticks = (uint16_t) (__ms * 10.0);
		while(__ticks)
 446:	d9 f7       	brne	.-10     	; 0x43e <main+0x3ac>
	 _delay_ms(1000);
	 PORTA=0b10010010;
 448:	1b bb       	out	0x1b, r17	; 27
 44a:	80 e1       	ldi	r24, 0x10	; 16
 44c:	97 e2       	ldi	r25, 0x27	; 39
 44e:	f9 01       	movw	r30, r18
 450:	31 97       	sbiw	r30, 0x01	; 1
 452:	f1 f7       	brne	.-4      	; 0x450 <main+0x3be>
		{
			// wait 1/10 ms
			_delay_loop_2(((F_CPU) / 4e3) / 10);
			__ticks --;
 454:	01 97       	sbiw	r24, 0x01	; 1
		__ticks = 1;
	else if (__tmp > 65535)
	{
		//	__ticks = requested delay in 1/10 ms
		__ticks = (uint16_t) (__ms * 10.0);
		while(__ticks)
 456:	d9 f7       	brne	.-10     	; 0x44e <main+0x3bc>
	 _delay_ms(1000);
	 PORTA=0b10000010;
 458:	5b bb       	out	0x1b, r21	; 27
 45a:	80 e1       	ldi	r24, 0x10	; 16
 45c:	97 e2       	ldi	r25, 0x27	; 39
 45e:	f9 01       	movw	r30, r18
 460:	31 97       	sbiw	r30, 0x01	; 1
 462:	f1 f7       	brne	.-4      	; 0x460 <__stack+0x1>
		{
			// wait 1/10 ms
			_delay_loop_2(((F_CPU) / 4e3) / 10);
			__ticks --;
 464:	01 97       	sbiw	r24, 0x01	; 1
		__ticks = 1;
	else if (__tmp > 65535)
	{
		//	__ticks = requested delay in 1/10 ms
		__ticks = (uint16_t) (__ms * 10.0);
		while(__ticks)
 466:	d9 f7       	brne	.-10     	; 0x45e <main+0x3cc>
	 _delay_ms(1000);
	 PORTA=0b11111000;
 468:	6b bb       	out	0x1b, r22	; 27
 46a:	80 e1       	ldi	r24, 0x10	; 16
 46c:	97 e2       	ldi	r25, 0x27	; 39
 46e:	f9 01       	movw	r30, r18
 470:	31 97       	sbiw	r30, 0x01	; 1
 472:	f1 f7       	brne	.-4      	; 0x470 <__stack+0x11>
		{
			// wait 1/10 ms
			_delay_loop_2(((F_CPU) / 4e3) / 10);
			__ticks --;
 474:	01 97       	sbiw	r24, 0x01	; 1
		__ticks = 1;
	else if (__tmp > 65535)
	{
		//	__ticks = requested delay in 1/10 ms
		__ticks = (uint16_t) (__ms * 10.0);
		while(__ticks)
 476:	d9 f7       	brne	.-10     	; 0x46e <__stack+0xf>
	 _delay_ms(1000);
	 PORTA=0b10000000;
 478:	7b bb       	out	0x1b, r23	; 27
 47a:	80 e1       	ldi	r24, 0x10	; 16
 47c:	97 e2       	ldi	r25, 0x27	; 39
 47e:	f9 01       	movw	r30, r18
 480:	31 97       	sbiw	r30, 0x01	; 1
 482:	f1 f7       	brne	.-4      	; 0x480 <__stack+0x21>
		{
			// wait 1/10 ms
			_delay_loop_2(((F_CPU) / 4e3) / 10);
			__ticks --;
 484:	01 97       	sbiw	r24, 0x01	; 1
		__ticks = 1;
	else if (__tmp > 65535)
	{
		//	__ticks = requested delay in 1/10 ms
		__ticks = (uint16_t) (__ms * 10.0);
		while(__ticks)
 486:	d9 f7       	brne	.-10     	; 0x47e <__stack+0x1f>
	 _delay_ms(1000);
	 PORTA=0b10011000;
 488:	4b bb       	out	0x1b, r20	; 27
 48a:	80 e1       	ldi	r24, 0x10	; 16
 48c:	97 e2       	ldi	r25, 0x27	; 39
 48e:	f9 01       	movw	r30, r18
 490:	31 97       	sbiw	r30, 0x01	; 1
 492:	f1 f7       	brne	.-4      	; 0x490 <__stack+0x31>
		{
			// wait 1/10 ms
			_delay_loop_2(((F_CPU) / 4e3) / 10);
			__ticks --;
 494:	01 97       	sbiw	r24, 0x01	; 1
		__ticks = 1;
	else if (__tmp > 65535)
	{
		//	__ticks = requested delay in 1/10 ms
		__ticks = (uint16_t) (__ms * 10.0);
		while(__ticks)
 496:	d9 f7       	brne	.-10     	; 0x48e <__stack+0x2f>
	  _delay_ms(1000);


	 PORTB=0b10000010;
 498:	58 bb       	out	0x18, r21	; 24
	 DDRA=0b11111111;
 49a:	da ba       	out	0x1a, r13	; 26
	 PORTA=0b11000000;
 49c:	eb ba       	out	0x1b, r14	; 27
 49e:	80 e1       	ldi	r24, 0x10	; 16
 4a0:	97 e2       	ldi	r25, 0x27	; 39
 4a2:	f9 01       	movw	r30, r18
 4a4:	31 97       	sbiw	r30, 0x01	; 1
 4a6:	f1 f7       	brne	.-4      	; 0x4a4 <__stack+0x45>
		{
			// wait 1/10 ms
			_delay_loop_2(((F_CPU) / 4e3) / 10);
			__ticks --;
 4a8:	01 97       	sbiw	r24, 0x01	; 1
		__ticks = 1;
	else if (__tmp > 65535)
	{
		//	__ticks = requested delay in 1/10 ms
		__ticks = (uint16_t) (__ms * 10.0);
		while(__ticks)
 4aa:	d9 f7       	brne	.-10     	; 0x4a2 <__stack+0x43>
	 _delay_ms(1000);
     PORTA=0b11111001;
 4ac:	0b bb       	out	0x1b, r16	; 27
 4ae:	80 e1       	ldi	r24, 0x10	; 16
 4b0:	97 e2       	ldi	r25, 0x27	; 39
 4b2:	f9 01       	movw	r30, r18
 4b4:	31 97       	sbiw	r30, 0x01	; 1
 4b6:	f1 f7       	brne	.-4      	; 0x4b4 <__stack+0x55>
		{
			// wait 1/10 ms
			_delay_loop_2(((F_CPU) / 4e3) / 10);
			__ticks --;
 4b8:	01 97       	sbiw	r24, 0x01	; 1
		__ticks = 1;
	else if (__tmp > 65535)
	{
		//	__ticks = requested delay in 1/10 ms
		__ticks = (uint16_t) (__ms * 10.0);
		while(__ticks)
 4ba:	d9 f7       	brne	.-10     	; 0x4b2 <__stack+0x53>
	 _delay_ms(1000);
	 PORTA=0b10100100;
 4bc:	fb ba       	out	0x1b, r15	; 27
 4be:	80 e1       	ldi	r24, 0x10	; 16
 4c0:	97 e2       	ldi	r25, 0x27	; 39
 4c2:	f9 01       	movw	r30, r18
 4c4:	31 97       	sbiw	r30, 0x01	; 1
 4c6:	f1 f7       	brne	.-4      	; 0x4c4 <__stack+0x65>
		{
			// wait 1/10 ms
			_delay_loop_2(((F_CPU) / 4e3) / 10);
			__ticks --;
 4c8:	01 97       	sbiw	r24, 0x01	; 1
		__ticks = 1;
	else if (__tmp > 65535)
	{
		//	__ticks = requested delay in 1/10 ms
		__ticks = (uint16_t) (__ms * 10.0);
		while(__ticks)
 4ca:	d9 f7       	brne	.-10     	; 0x4c2 <__stack+0x63>
	 _delay_ms(1000);
	 PORTA=0b10110000;
 4cc:	ab bb       	out	0x1b, r26	; 27
 4ce:	80 e1       	ldi	r24, 0x10	; 16
 4d0:	97 e2       	ldi	r25, 0x27	; 39
 4d2:	f9 01       	movw	r30, r18
 4d4:	31 97       	sbiw	r30, 0x01	; 1
 4d6:	f1 f7       	brne	.-4      	; 0x4d4 <__stack+0x75>
		{
			// wait 1/10 ms
			_delay_loop_2(((F_CPU) / 4e3) / 10);
			__ticks --;
 4d8:	01 97       	sbiw	r24, 0x01	; 1
		__ticks = 1;
	else if (__tmp > 65535)
	{
		//	__ticks = requested delay in 1/10 ms
		__ticks = (uint16_t) (__ms * 10.0);
		while(__ticks)
 4da:	d9 f7       	brne	.-10     	; 0x4d2 <__stack+0x73>
	 _delay_ms(1000);
	 PORTA=0b10011001;
 4dc:	bb bb       	out	0x1b, r27	; 27
 4de:	80 e1       	ldi	r24, 0x10	; 16
 4e0:	97 e2       	ldi	r25, 0x27	; 39
 4e2:	f9 01       	movw	r30, r18
 4e4:	31 97       	sbiw	r30, 0x01	; 1
 4e6:	f1 f7       	brne	.-4      	; 0x4e4 <__stack+0x85>
		{
			// wait 1/10 ms
			_delay_loop_2(((F_CPU) / 4e3) / 10);
			__ticks --;
 4e8:	01 97       	sbiw	r24, 0x01	; 1
		__ticks = 1;
	else if (__tmp > 65535)
	{
		//	__ticks = requested delay in 1/10 ms
		__ticks = (uint16_t) (__ms * 10.0);
		while(__ticks)
 4ea:	d9 f7       	brne	.-10     	; 0x4e2 <__stack+0x83>
	 _delay_ms(1000);
	 PORTA=0b10010010;
 4ec:	1b bb       	out	0x1b, r17	; 27
 4ee:	80 e1       	ldi	r24, 0x10	; 16
 4f0:	97 e2       	ldi	r25, 0x27	; 39
 4f2:	f9 01       	movw	r30, r18
 4f4:	31 97       	sbiw	r30, 0x01	; 1
 4f6:	f1 f7       	brne	.-4      	; 0x4f4 <__stack+0x95>
		{
			// wait 1/10 ms
			_delay_loop_2(((F_CPU) / 4e3) / 10);
			__ticks --;
 4f8:	01 97       	sbiw	r24, 0x01	; 1
		__ticks = 1;
	else if (__tmp > 65535)
	{
		//	__ticks = requested delay in 1/10 ms
		__ticks = (uint16_t) (__ms * 10.0);
		while(__ticks)
 4fa:	d9 f7       	brne	.-10     	; 0x4f2 <__stack+0x93>
	 _delay_ms(1000);
	 PORTA=0b10000010;
 4fc:	5b bb       	out	0x1b, r21	; 27
 4fe:	80 e1       	ldi	r24, 0x10	; 16
 500:	97 e2       	ldi	r25, 0x27	; 39
 502:	f9 01       	movw	r30, r18
 504:	31 97       	sbiw	r30, 0x01	; 1
 506:	f1 f7       	brne	.-4      	; 0x504 <__stack+0xa5>
		{
			// wait 1/10 ms
			_delay_loop_2(((F_CPU) / 4e3) / 10);
			__ticks --;
 508:	01 97       	sbiw	r24, 0x01	; 1
		__ticks = 1;
	else if (__tmp > 65535)
	{
		//	__ticks = requested delay in 1/10 ms
		__ticks = (uint16_t) (__ms * 10.0);
		while(__ticks)
 50a:	d9 f7       	brne	.-10     	; 0x502 <__stack+0xa3>
	 _delay_ms(1000);
	 PORTA=0b11111000;
 50c:	6b bb       	out	0x1b, r22	; 27
 50e:	80 e1       	ldi	r24, 0x10	; 16
 510:	97 e2       	ldi	r25, 0x27	; 39
 512:	f9 01       	movw	r30, r18
 514:	31 97       	sbiw	r30, 0x01	; 1
 516:	f1 f7       	brne	.-4      	; 0x514 <__stack+0xb5>
		{
			// wait 1/10 ms
			_delay_loop_2(((F_CPU) / 4e3) / 10);
			__ticks --;
 518:	01 97       	sbiw	r24, 0x01	; 1
		__ticks = 1;
	else if (__tmp > 65535)
	{
		//	__ticks = requested delay in 1/10 ms
		__ticks = (uint16_t) (__ms * 10.0);
		while(__ticks)
 51a:	d9 f7       	brne	.-10     	; 0x512 <__stack+0xb3>
	 _delay_ms(1000);
	 PORTA=0b10000000;
 51c:	7b bb       	out	0x1b, r23	; 27
 51e:	80 e1       	ldi	r24, 0x10	; 16
 520:	97 e2       	ldi	r25, 0x27	; 39
 522:	f9 01       	movw	r30, r18
 524:	31 97       	sbiw	r30, 0x01	; 1
 526:	f1 f7       	brne	.-4      	; 0x524 <__stack+0xc5>
		{
			// wait 1/10 ms
			_delay_loop_2(((F_CPU) / 4e3) / 10);
			__ticks --;
 528:	01 97       	sbiw	r24, 0x01	; 1
		__ticks = 1;
	else if (__tmp > 65535)
	{
		//	__ticks = requested delay in 1/10 ms
		__ticks = (uint16_t) (__ms * 10.0);
		while(__ticks)
 52a:	d9 f7       	brne	.-10     	; 0x522 <__stack+0xc3>
	 _delay_ms(1000);
	 PORTA=0b10011000;
 52c:	4b bb       	out	0x1b, r20	; 27
 52e:	80 e1       	ldi	r24, 0x10	; 16
 530:	97 e2       	ldi	r25, 0x27	; 39
 532:	f9 01       	movw	r30, r18
 534:	31 97       	sbiw	r30, 0x01	; 1
 536:	f1 f7       	brne	.-4      	; 0x534 <__stack+0xd5>
		{
			// wait 1/10 ms
			_delay_loop_2(((F_CPU) / 4e3) / 10);
			__ticks --;
 538:	01 97       	sbiw	r24, 0x01	; 1
		__ticks = 1;
	else if (__tmp > 65535)
	{
		//	__ticks = requested delay in 1/10 ms
		__ticks = (uint16_t) (__ms * 10.0);
		while(__ticks)
 53a:	d9 f7       	brne	.-10     	; 0x532 <__stack+0xd3>
	 _delay_ms(1000);


	 PORTB=0b11111000;
 53c:	68 bb       	out	0x18, r22	; 24
	 DDRA=0b11111111;
 53e:	da ba       	out	0x1a, r13	; 26
	 PORTA=0b11000000;
 540:	eb ba       	out	0x1b, r14	; 27
 542:	80 e1       	ldi	r24, 0x10	; 16
 544:	97 e2       	ldi	r25, 0x27	; 39
 546:	f9 01       	movw	r30, r18
 548:	31 97       	sbiw	r30, 0x01	; 1
 54a:	f1 f7       	brne	.-4      	; 0x548 <__stack+0xe9>
		{
			// wait 1/10 ms
			_delay_loop_2(((F_CPU) / 4e3) / 10);
			__ticks --;
 54c:	01 97       	sbiw	r24, 0x01	; 1
		__ticks = 1;
	else if (__tmp > 65535)
	{
		//	__ticks = requested delay in 1/10 ms
		__ticks = (uint16_t) (__ms * 10.0);
		while(__ticks)
 54e:	d9 f7       	brne	.-10     	; 0x546 <__stack+0xe7>
	 _delay_ms(1000);
     PORTA=0b11111001;
 550:	0b bb       	out	0x1b, r16	; 27
 552:	80 e1       	ldi	r24, 0x10	; 16
 554:	97 e2       	ldi	r25, 0x27	; 39
 556:	f9 01       	movw	r30, r18
 558:	31 97       	sbiw	r30, 0x01	; 1
 55a:	f1 f7       	brne	.-4      	; 0x558 <__stack+0xf9>
		{
			// wait 1/10 ms
			_delay_loop_2(((F_CPU) / 4e3) / 10);
			__ticks --;
 55c:	01 97       	sbiw	r24, 0x01	; 1
		__ticks = 1;
	else if (__tmp > 65535)
	{
		//	__ticks = requested delay in 1/10 ms
		__ticks = (uint16_t) (__ms * 10.0);
		while(__ticks)
 55e:	d9 f7       	brne	.-10     	; 0x556 <__stack+0xf7>
	 _delay_ms(1000);
	 PORTA=0b10100100;
 560:	fb ba       	out	0x1b, r15	; 27
 562:	80 e1       	ldi	r24, 0x10	; 16
 564:	97 e2       	ldi	r25, 0x27	; 39
 566:	f9 01       	movw	r30, r18
 568:	31 97       	sbiw	r30, 0x01	; 1
 56a:	f1 f7       	brne	.-4      	; 0x568 <__stack+0x109>
		{
			// wait 1/10 ms
			_delay_loop_2(((F_CPU) / 4e3) / 10);
			__ticks --;
 56c:	01 97       	sbiw	r24, 0x01	; 1
		__ticks = 1;
	else if (__tmp > 65535)
	{
		//	__ticks = requested delay in 1/10 ms
		__ticks = (uint16_t) (__ms * 10.0);
		while(__ticks)
 56e:	d9 f7       	brne	.-10     	; 0x566 <__stack+0x107>
	 _delay_ms(1000);
	 PORTA=0b10110000;
 570:	ab bb       	out	0x1b, r26	; 27
 572:	80 e1       	ldi	r24, 0x10	; 16
 574:	97 e2       	ldi	r25, 0x27	; 39
 576:	f9 01       	movw	r30, r18
 578:	31 97       	sbiw	r30, 0x01	; 1
 57a:	f1 f7       	brne	.-4      	; 0x578 <__stack+0x119>
		{
			// wait 1/10 ms
			_delay_loop_2(((F_CPU) / 4e3) / 10);
			__ticks --;
 57c:	01 97       	sbiw	r24, 0x01	; 1
		__ticks = 1;
	else if (__tmp > 65535)
	{
		//	__ticks = requested delay in 1/10 ms
		__ticks = (uint16_t) (__ms * 10.0);
		while(__ticks)
 57e:	d9 f7       	brne	.-10     	; 0x576 <__stack+0x117>
	 _delay_ms(1000);
	 PORTA=0b10011001;
 580:	bb bb       	out	0x1b, r27	; 27
 582:	80 e1       	ldi	r24, 0x10	; 16
 584:	97 e2       	ldi	r25, 0x27	; 39
 586:	f9 01       	movw	r30, r18
 588:	31 97       	sbiw	r30, 0x01	; 1
 58a:	f1 f7       	brne	.-4      	; 0x588 <__stack+0x129>
		{
			// wait 1/10 ms
			_delay_loop_2(((F_CPU) / 4e3) / 10);
			__ticks --;
 58c:	01 97       	sbiw	r24, 0x01	; 1
		__ticks = 1;
	else if (__tmp > 65535)
	{
		//	__ticks = requested delay in 1/10 ms
		__ticks = (uint16_t) (__ms * 10.0);
		while(__ticks)
 58e:	d9 f7       	brne	.-10     	; 0x586 <__stack+0x127>
	 _delay_ms(1000);
	 PORTA=0b10010010;
 590:	1b bb       	out	0x1b, r17	; 27
 592:	80 e1       	ldi	r24, 0x10	; 16
 594:	97 e2       	ldi	r25, 0x27	; 39
 596:	f9 01       	movw	r30, r18
 598:	31 97       	sbiw	r30, 0x01	; 1
 59a:	f1 f7       	brne	.-4      	; 0x598 <__stack+0x139>
		{
			// wait 1/10 ms
			_delay_loop_2(((F_CPU) / 4e3) / 10);
			__ticks --;
 59c:	01 97       	sbiw	r24, 0x01	; 1
		__ticks = 1;
	else if (__tmp > 65535)
	{
		//	__ticks = requested delay in 1/10 ms
		__ticks = (uint16_t) (__ms * 10.0);
		while(__ticks)
 59e:	d9 f7       	brne	.-10     	; 0x596 <__stack+0x137>
	 _delay_ms(1000);
	 PORTA=0b10000010;
 5a0:	5b bb       	out	0x1b, r21	; 27
 5a2:	80 e1       	ldi	r24, 0x10	; 16
 5a4:	97 e2       	ldi	r25, 0x27	; 39
 5a6:	f9 01       	movw	r30, r18
 5a8:	31 97       	sbiw	r30, 0x01	; 1
 5aa:	f1 f7       	brne	.-4      	; 0x5a8 <__stack+0x149>
		{
			// wait 1/10 ms
			_delay_loop_2(((F_CPU) / 4e3) / 10);
			__ticks --;
 5ac:	01 97       	sbiw	r24, 0x01	; 1
		__ticks = 1;
	else if (__tmp > 65535)
	{
		//	__ticks = requested delay in 1/10 ms
		__ticks = (uint16_t) (__ms * 10.0);
		while(__ticks)
 5ae:	d9 f7       	brne	.-10     	; 0x5a6 <__stack+0x147>
	 _delay_ms(1000);
	 PORTA=0b11111000;
 5b0:	6b bb       	out	0x1b, r22	; 27
 5b2:	80 e1       	ldi	r24, 0x10	; 16
 5b4:	97 e2       	ldi	r25, 0x27	; 39
 5b6:	f9 01       	movw	r30, r18
 5b8:	31 97       	sbiw	r30, 0x01	; 1
 5ba:	f1 f7       	brne	.-4      	; 0x5b8 <__stack+0x159>
		{
			// wait 1/10 ms
			_delay_loop_2(((F_CPU) / 4e3) / 10);
			__ticks --;
 5bc:	01 97       	sbiw	r24, 0x01	; 1
		__ticks = 1;
	else if (__tmp > 65535)
	{
		//	__ticks = requested delay in 1/10 ms
		__ticks = (uint16_t) (__ms * 10.0);
		while(__ticks)
 5be:	d9 f7       	brne	.-10     	; 0x5b6 <__stack+0x157>
	 _delay_ms(1000);
	 PORTA=0b10000000;
 5c0:	7b bb       	out	0x1b, r23	; 27
 5c2:	80 e1       	ldi	r24, 0x10	; 16
 5c4:	97 e2       	ldi	r25, 0x27	; 39
 5c6:	f9 01       	movw	r30, r18
 5c8:	31 97       	sbiw	r30, 0x01	; 1
 5ca:	f1 f7       	brne	.-4      	; 0x5c8 <__stack+0x169>
		{
			// wait 1/10 ms
			_delay_loop_2(((F_CPU) / 4e3) / 10);
			__ticks --;
 5cc:	01 97       	sbiw	r24, 0x01	; 1
		__ticks = 1;
	else if (__tmp > 65535)
	{
		//	__ticks = requested delay in 1/10 ms
		__ticks = (uint16_t) (__ms * 10.0);
		while(__ticks)
 5ce:	d9 f7       	brne	.-10     	; 0x5c6 <__stack+0x167>
	 _delay_ms(1000);
	 PORTA=0b10011000;
 5d0:	4b bb       	out	0x1b, r20	; 27
 5d2:	80 e1       	ldi	r24, 0x10	; 16
 5d4:	97 e2       	ldi	r25, 0x27	; 39
 5d6:	f9 01       	movw	r30, r18
 5d8:	31 97       	sbiw	r30, 0x01	; 1
 5da:	f1 f7       	brne	.-4      	; 0x5d8 <__stack+0x179>
		{
			// wait 1/10 ms
			_delay_loop_2(((F_CPU) / 4e3) / 10);
			__ticks --;
 5dc:	01 97       	sbiw	r24, 0x01	; 1
		__ticks = 1;
	else if (__tmp > 65535)
	{
		//	__ticks = requested delay in 1/10 ms
		__ticks = (uint16_t) (__ms * 10.0);
		while(__ticks)
 5de:	d9 f7       	brne	.-10     	; 0x5d6 <__stack+0x177>
	 _delay_ms(1000);


	 PORTB=0b10000000;
 5e0:	78 bb       	out	0x18, r23	; 24
	 DDRA=0b11111111;
 5e2:	da ba       	out	0x1a, r13	; 26
	 PORTA=0b11000000;
 5e4:	eb ba       	out	0x1b, r14	; 27
 5e6:	80 e1       	ldi	r24, 0x10	; 16
 5e8:	97 e2       	ldi	r25, 0x27	; 39
 5ea:	f9 01       	movw	r30, r18
 5ec:	31 97       	sbiw	r30, 0x01	; 1
 5ee:	f1 f7       	brne	.-4      	; 0x5ec <__stack+0x18d>
		{
			// wait 1/10 ms
			_delay_loop_2(((F_CPU) / 4e3) / 10);
			__ticks --;
 5f0:	01 97       	sbiw	r24, 0x01	; 1
		__ticks = 1;
	else if (__tmp > 65535)
	{
		//	__ticks = requested delay in 1/10 ms
		__ticks = (uint16_t) (__ms * 10.0);
		while(__ticks)
 5f2:	d9 f7       	brne	.-10     	; 0x5ea <__stack+0x18b>
	 _delay_ms(1000);
     PORTA=0b11111001;
 5f4:	0b bb       	out	0x1b, r16	; 27
 5f6:	80 e1       	ldi	r24, 0x10	; 16
 5f8:	97 e2       	ldi	r25, 0x27	; 39
 5fa:	f9 01       	movw	r30, r18
 5fc:	31 97       	sbiw	r30, 0x01	; 1
 5fe:	f1 f7       	brne	.-4      	; 0x5fc <__stack+0x19d>
		{
			// wait 1/10 ms
			_delay_loop_2(((F_CPU) / 4e3) / 10);
			__ticks --;
 600:	01 97       	sbiw	r24, 0x01	; 1
		__ticks = 1;
	else if (__tmp > 65535)
	{
		//	__ticks = requested delay in 1/10 ms
		__ticks = (uint16_t) (__ms * 10.0);
		while(__ticks)
 602:	d9 f7       	brne	.-10     	; 0x5fa <__stack+0x19b>
	 _delay_ms(1000);
	 PORTA=0b10100100;
 604:	fb ba       	out	0x1b, r15	; 27
 606:	80 e1       	ldi	r24, 0x10	; 16
 608:	97 e2       	ldi	r25, 0x27	; 39
 60a:	f9 01       	movw	r30, r18
 60c:	31 97       	sbiw	r30, 0x01	; 1
 60e:	f1 f7       	brne	.-4      	; 0x60c <__stack+0x1ad>
		{
			// wait 1/10 ms
			_delay_loop_2(((F_CPU) / 4e3) / 10);
			__ticks --;
 610:	01 97       	sbiw	r24, 0x01	; 1
		__ticks = 1;
	else if (__tmp > 65535)
	{
		//	__ticks = requested delay in 1/10 ms
		__ticks = (uint16_t) (__ms * 10.0);
		while(__ticks)
 612:	d9 f7       	brne	.-10     	; 0x60a <__stack+0x1ab>
	 _delay_ms(1000);
	 PORTA=0b10110000;
 614:	ab bb       	out	0x1b, r26	; 27
 616:	80 e1       	ldi	r24, 0x10	; 16
 618:	97 e2       	ldi	r25, 0x27	; 39
 61a:	f9 01       	movw	r30, r18
 61c:	31 97       	sbiw	r30, 0x01	; 1
 61e:	f1 f7       	brne	.-4      	; 0x61c <__stack+0x1bd>
		{
			// wait 1/10 ms
			_delay_loop_2(((F_CPU) / 4e3) / 10);
			__ticks --;
 620:	01 97       	sbiw	r24, 0x01	; 1
		__ticks = 1;
	else if (__tmp > 65535)
	{
		//	__ticks = requested delay in 1/10 ms
		__ticks = (uint16_t) (__ms * 10.0);
		while(__ticks)
 622:	d9 f7       	brne	.-10     	; 0x61a <__stack+0x1bb>
	 _delay_ms(1000);
	 PORTA=0b10011001;
 624:	bb bb       	out	0x1b, r27	; 27
 626:	80 e1       	ldi	r24, 0x10	; 16
 628:	97 e2       	ldi	r25, 0x27	; 39
 62a:	f9 01       	movw	r30, r18
 62c:	31 97       	sbiw	r30, 0x01	; 1
 62e:	f1 f7       	brne	.-4      	; 0x62c <__stack+0x1cd>
		{
			// wait 1/10 ms
			_delay_loop_2(((F_CPU) / 4e3) / 10);
			__ticks --;
 630:	01 97       	sbiw	r24, 0x01	; 1
		__ticks = 1;
	else if (__tmp > 65535)
	{
		//	__ticks = requested delay in 1/10 ms
		__ticks = (uint16_t) (__ms * 10.0);
		while(__ticks)
 632:	d9 f7       	brne	.-10     	; 0x62a <__stack+0x1cb>
	 _delay_ms(1000);
	 PORTA=0b10010010;
 634:	1b bb       	out	0x1b, r17	; 27
 636:	80 e1       	ldi	r24, 0x10	; 16
 638:	97 e2       	ldi	r25, 0x27	; 39
 63a:	f9 01       	movw	r30, r18
 63c:	31 97       	sbiw	r30, 0x01	; 1
 63e:	f1 f7       	brne	.-4      	; 0x63c <__stack+0x1dd>
		{
			// wait 1/10 ms
			_delay_loop_2(((F_CPU) / 4e3) / 10);
			__ticks --;
 640:	01 97       	sbiw	r24, 0x01	; 1
		__ticks = 1;
	else if (__tmp > 65535)
	{
		//	__ticks = requested delay in 1/10 ms
		__ticks = (uint16_t) (__ms * 10.0);
		while(__ticks)
 642:	d9 f7       	brne	.-10     	; 0x63a <__stack+0x1db>
	 _delay_ms(1000);
	 PORTA=0b10000010;
 644:	5b bb       	out	0x1b, r21	; 27
 646:	80 e1       	ldi	r24, 0x10	; 16
 648:	97 e2       	ldi	r25, 0x27	; 39
 64a:	f9 01       	movw	r30, r18
 64c:	31 97       	sbiw	r30, 0x01	; 1
 64e:	f1 f7       	brne	.-4      	; 0x64c <__stack+0x1ed>
		{
			// wait 1/10 ms
			_delay_loop_2(((F_CPU) / 4e3) / 10);
			__ticks --;
 650:	01 97       	sbiw	r24, 0x01	; 1
		__ticks = 1;
	else if (__tmp > 65535)
	{
		//	__ticks = requested delay in 1/10 ms
		__ticks = (uint16_t) (__ms * 10.0);
		while(__ticks)
 652:	d9 f7       	brne	.-10     	; 0x64a <__stack+0x1eb>
	 _delay_ms(1000);
	 PORTA=0b11111000;
 654:	6b bb       	out	0x1b, r22	; 27
 656:	80 e1       	ldi	r24, 0x10	; 16
 658:	97 e2       	ldi	r25, 0x27	; 39
 65a:	f9 01       	movw	r30, r18
 65c:	31 97       	sbiw	r30, 0x01	; 1
 65e:	f1 f7       	brne	.-4      	; 0x65c <__stack+0x1fd>
		{
			// wait 1/10 ms
			_delay_loop_2(((F_CPU) / 4e3) / 10);
			__ticks --;
 660:	01 97       	sbiw	r24, 0x01	; 1
		__ticks = 1;
	else if (__tmp > 65535)
	{
		//	__ticks = requested delay in 1/10 ms
		__ticks = (uint16_t) (__ms * 10.0);
		while(__ticks)
 662:	d9 f7       	brne	.-10     	; 0x65a <__stack+0x1fb>
	 _delay_ms(1000);
	 PORTA=0b10000000;
 664:	7b bb       	out	0x1b, r23	; 27
 666:	80 e1       	ldi	r24, 0x10	; 16
 668:	97 e2       	ldi	r25, 0x27	; 39
 66a:	f9 01       	movw	r30, r18
 66c:	31 97       	sbiw	r30, 0x01	; 1
 66e:	f1 f7       	brne	.-4      	; 0x66c <__stack+0x20d>
		{
			// wait 1/10 ms
			_delay_loop_2(((F_CPU) / 4e3) / 10);
			__ticks --;
 670:	01 97       	sbiw	r24, 0x01	; 1
		__ticks = 1;
	else if (__tmp > 65535)
	{
		//	__ticks = requested delay in 1/10 ms
		__ticks = (uint16_t) (__ms * 10.0);
		while(__ticks)
 672:	d9 f7       	brne	.-10     	; 0x66a <__stack+0x20b>
	 _delay_ms(1000);
	 PORTA=0b10011000;
 674:	4b bb       	out	0x1b, r20	; 27
 676:	80 e1       	ldi	r24, 0x10	; 16
 678:	97 e2       	ldi	r25, 0x27	; 39
 67a:	f9 01       	movw	r30, r18
 67c:	31 97       	sbiw	r30, 0x01	; 1
 67e:	f1 f7       	brne	.-4      	; 0x67c <__stack+0x21d>
		{
			// wait 1/10 ms
			_delay_loop_2(((F_CPU) / 4e3) / 10);
			__ticks --;
 680:	01 97       	sbiw	r24, 0x01	; 1
		__ticks = 1;
	else if (__tmp > 65535)
	{
		//	__ticks = requested delay in 1/10 ms
		__ticks = (uint16_t) (__ms * 10.0);
		while(__ticks)
 682:	d9 f7       	brne	.-10     	; 0x67a <__stack+0x21b>
	 _delay_ms(1000);


	 PORTB=0b10011000;
 684:	48 bb       	out	0x18, r20	; 24
	 DDRA=0b11111111;
 686:	da ba       	out	0x1a, r13	; 26
	 PORTA=0b11000000;
 688:	eb ba       	out	0x1b, r14	; 27
 68a:	80 e1       	ldi	r24, 0x10	; 16
 68c:	97 e2       	ldi	r25, 0x27	; 39
 68e:	f9 01       	movw	r30, r18
 690:	31 97       	sbiw	r30, 0x01	; 1
 692:	f1 f7       	brne	.-4      	; 0x690 <__stack+0x231>
		{
			// wait 1/10 ms
			_delay_loop_2(((F_CPU) / 4e3) / 10);
			__ticks --;
 694:	01 97       	sbiw	r24, 0x01	; 1
		__ticks = 1;
	else if (__tmp > 65535)
	{
		//	__ticks = requested delay in 1/10 ms
		__ticks = (uint16_t) (__ms * 10.0);
		while(__ticks)
 696:	d9 f7       	brne	.-10     	; 0x68e <__stack+0x22f>
	 _delay_ms(1000);
     PORTA=0b11111001;
 698:	0b bb       	out	0x1b, r16	; 27
 69a:	80 e1       	ldi	r24, 0x10	; 16
 69c:	97 e2       	ldi	r25, 0x27	; 39
 69e:	f9 01       	movw	r30, r18
 6a0:	31 97       	sbiw	r30, 0x01	; 1
 6a2:	f1 f7       	brne	.-4      	; 0x6a0 <__stack+0x241>
		{
			// wait 1/10 ms
			_delay_loop_2(((F_CPU) / 4e3) / 10);
			__ticks --;
 6a4:	01 97       	sbiw	r24, 0x01	; 1
		__ticks = 1;
	else if (__tmp > 65535)
	{
		//	__ticks = requested delay in 1/10 ms
		__ticks = (uint16_t) (__ms * 10.0);
		while(__ticks)
 6a6:	d9 f7       	brne	.-10     	; 0x69e <__stack+0x23f>
	 _delay_ms(1000);
	 PORTA=0b10100100;
 6a8:	fb ba       	out	0x1b, r15	; 27
 6aa:	80 e1       	ldi	r24, 0x10	; 16
 6ac:	97 e2       	ldi	r25, 0x27	; 39
 6ae:	f9 01       	movw	r30, r18
 6b0:	31 97       	sbiw	r30, 0x01	; 1
 6b2:	f1 f7       	brne	.-4      	; 0x6b0 <__stack+0x251>
		{
			// wait 1/10 ms
			_delay_loop_2(((F_CPU) / 4e3) / 10);
			__ticks --;
 6b4:	01 97       	sbiw	r24, 0x01	; 1
		__ticks = 1;
	else if (__tmp > 65535)
	{
		//	__ticks = requested delay in 1/10 ms
		__ticks = (uint16_t) (__ms * 10.0);
		while(__ticks)
 6b6:	d9 f7       	brne	.-10     	; 0x6ae <__stack+0x24f>
	 _delay_ms(1000);
	 PORTA=0b10110000;
 6b8:	ab bb       	out	0x1b, r26	; 27
 6ba:	80 e1       	ldi	r24, 0x10	; 16
 6bc:	97 e2       	ldi	r25, 0x27	; 39
 6be:	f9 01       	movw	r30, r18
 6c0:	31 97       	sbiw	r30, 0x01	; 1
 6c2:	f1 f7       	brne	.-4      	; 0x6c0 <__stack+0x261>
		{
			// wait 1/10 ms
			_delay_loop_2(((F_CPU) / 4e3) / 10);
			__ticks --;
 6c4:	01 97       	sbiw	r24, 0x01	; 1
		__ticks = 1;
	else if (__tmp > 65535)
	{
		//	__ticks = requested delay in 1/10 ms
		__ticks = (uint16_t) (__ms * 10.0);
		while(__ticks)
 6c6:	d9 f7       	brne	.-10     	; 0x6be <__stack+0x25f>
	 _delay_ms(1000);
	 PORTA=0b10011001;
 6c8:	bb bb       	out	0x1b, r27	; 27
 6ca:	80 e1       	ldi	r24, 0x10	; 16
 6cc:	97 e2       	ldi	r25, 0x27	; 39
 6ce:	f9 01       	movw	r30, r18
 6d0:	31 97       	sbiw	r30, 0x01	; 1
 6d2:	f1 f7       	brne	.-4      	; 0x6d0 <__stack+0x271>
		{
			// wait 1/10 ms
			_delay_loop_2(((F_CPU) / 4e3) / 10);
			__ticks --;
 6d4:	01 97       	sbiw	r24, 0x01	; 1
		__ticks = 1;
	else if (__tmp > 65535)
	{
		//	__ticks = requested delay in 1/10 ms
		__ticks = (uint16_t) (__ms * 10.0);
		while(__ticks)
 6d6:	d9 f7       	brne	.-10     	; 0x6ce <__stack+0x26f>
	 _delay_ms(1000);
	 PORTA=0b10010010;
 6d8:	1b bb       	out	0x1b, r17	; 27
 6da:	80 e1       	ldi	r24, 0x10	; 16
 6dc:	97 e2       	ldi	r25, 0x27	; 39
 6de:	f9 01       	movw	r30, r18
 6e0:	31 97       	sbiw	r30, 0x01	; 1
 6e2:	f1 f7       	brne	.-4      	; 0x6e0 <__stack+0x281>
		{
			// wait 1/10 ms
			_delay_loop_2(((F_CPU) / 4e3) / 10);
			__ticks --;
 6e4:	01 97       	sbiw	r24, 0x01	; 1
		__ticks = 1;
	else if (__tmp > 65535)
	{
		//	__ticks = requested delay in 1/10 ms
		__ticks = (uint16_t) (__ms * 10.0);
		while(__ticks)
 6e6:	d9 f7       	brne	.-10     	; 0x6de <__stack+0x27f>
	 _delay_ms(1000);
	 PORTA=0b10000010;
 6e8:	5b bb       	out	0x1b, r21	; 27
 6ea:	80 e1       	ldi	r24, 0x10	; 16
 6ec:	97 e2       	ldi	r25, 0x27	; 39
 6ee:	f9 01       	movw	r30, r18
 6f0:	31 97       	sbiw	r30, 0x01	; 1
 6f2:	f1 f7       	brne	.-4      	; 0x6f0 <__stack+0x291>
		{
			// wait 1/10 ms
			_delay_loop_2(((F_CPU) / 4e3) / 10);
			__ticks --;
 6f4:	01 97       	sbiw	r24, 0x01	; 1
		__ticks = 1;
	else if (__tmp > 65535)
	{
		//	__ticks = requested delay in 1/10 ms
		__ticks = (uint16_t) (__ms * 10.0);
		while(__ticks)
 6f6:	d9 f7       	brne	.-10     	; 0x6ee <__stack+0x28f>
	 _delay_ms(1000);
	 PORTA=0b11111000;
 6f8:	6b bb       	out	0x1b, r22	; 27
 6fa:	80 e1       	ldi	r24, 0x10	; 16
 6fc:	97 e2       	ldi	r25, 0x27	; 39
 6fe:	f9 01       	movw	r30, r18
 700:	31 97       	sbiw	r30, 0x01	; 1
 702:	f1 f7       	brne	.-4      	; 0x700 <__stack+0x2a1>
		{
			// wait 1/10 ms
			_delay_loop_2(((F_CPU) / 4e3) / 10);
			__ticks --;
 704:	01 97       	sbiw	r24, 0x01	; 1
		__ticks = 1;
	else if (__tmp > 65535)
	{
		//	__ticks = requested delay in 1/10 ms
		__ticks = (uint16_t) (__ms * 10.0);
		while(__ticks)
 706:	d9 f7       	brne	.-10     	; 0x6fe <__stack+0x29f>
	 _delay_ms(1000);
	 PORTA=0b10000000;
 708:	7b bb       	out	0x1b, r23	; 27
 70a:	80 e1       	ldi	r24, 0x10	; 16
 70c:	97 e2       	ldi	r25, 0x27	; 39
 70e:	f9 01       	movw	r30, r18
 710:	31 97       	sbiw	r30, 0x01	; 1
 712:	f1 f7       	brne	.-4      	; 0x710 <__stack+0x2b1>
		{
			// wait 1/10 ms
			_delay_loop_2(((F_CPU) / 4e3) / 10);
			__ticks --;
 714:	01 97       	sbiw	r24, 0x01	; 1
		__ticks = 1;
	else if (__tmp > 65535)
	{
		//	__ticks = requested delay in 1/10 ms
		__ticks = (uint16_t) (__ms * 10.0);
		while(__ticks)
 716:	d9 f7       	brne	.-10     	; 0x70e <__stack+0x2af>
	 _delay_ms(1000);
	 PORTA=0b10011000;
 718:	4b bb       	out	0x1b, r20	; 27
 71a:	80 e1       	ldi	r24, 0x10	; 16
 71c:	97 e2       	ldi	r25, 0x27	; 39
 71e:	f9 01       	movw	r30, r18
 720:	31 97       	sbiw	r30, 0x01	; 1
 722:	f1 f7       	brne	.-4      	; 0x720 <__stack+0x2c1>
		{
			// wait 1/10 ms
			_delay_loop_2(((F_CPU) / 4e3) / 10);
			__ticks --;
 724:	01 97       	sbiw	r24, 0x01	; 1
		__ticks = 1;
	else if (__tmp > 65535)
	{
		//	__ticks = requested delay in 1/10 ms
		__ticks = (uint16_t) (__ms * 10.0);
		while(__ticks)
 726:	d9 f7       	brne	.-10     	; 0x71e <__stack+0x2bf>
 728:	cb cc       	rjmp	.-1642   	; 0xc0 <main+0x2e>

0000072a <_exit>:
 72a:	f8 94       	cli

0000072c <__stop_program>:
 72c:	ff cf       	rjmp	.-2      	; 0x72c <__stop_program>
